

Microchip MPLAB XC8 Assembler V2.20 build 20200408173844 
                                                                                               Mon Aug 17 11:00:57 2020

Microchip MPLAB XC8 C Compiler v2.20 (Free license) build 20200408173844 Og9 
     1                           	processor	18F47K42
     2                           	fnconf	rparam,??,?,0
     3                           	pagewidth 120
     4                           	opt	flic
     5                           	psect	idataBANK0,global,class=CODE,delta=1,noexec
     6                           	psect	smallconst,global,reloc=2,class=SMALLCONST,delta=1,noexec
     7                           	psect	cinit,global,reloc=2,class=CODE,delta=1
     8                           	psect	bssCOMRAM,global,class=COMRAM,space=1,delta=1,lowdata,noexec
     9                           	psect	bssBANK0,global,class=BANK0,space=1,delta=1,lowdata,noexec
    10                           	psect	dataBANK0,global,class=BANK0,space=1,delta=1,lowdata,noexec
    11                           	psect	bssBANK1,global,class=BANK1,space=1,delta=1,lowdata,noexec
    12                           	psect	bssBANK2,global,class=BANK2,space=1,delta=1,lowdata,noexec
    13                           	psect	cstackBANK3,global,class=BANK3,space=1,delta=1,lowdata,noexec
    14                           	psect	cstackBANK0,global,class=BANK0,space=1,delta=1,lowdata,noexec
    15                           	psect	cstackCOMRAM,global,class=COMRAM,space=1,delta=1,lowdata,noexec
    16                           	psect	text0,global,reloc=2,class=CODE,delta=1
    17                           	psect	text1,global,reloc=2,class=CODE,delta=1,group=3
    18                           	psect	text2,global,reloc=2,class=CODE,delta=1,group=1
    19                           	psect	text3,global,reloc=2,class=CODE,delta=1,group=1
    20                           	psect	text4,global,reloc=2,class=CODE,delta=1,group=1
    21                           	psect	text5,global,reloc=2,class=CODE,delta=1,group=1
    22                           	psect	text6,global,reloc=2,class=CODE,delta=1,group=3
    23                           	psect	text7,global,reloc=2,class=CODE,delta=1,group=3
    24                           	psect	text8,global,reloc=2,class=CODE,delta=1,group=3
    25                           	psect	text9,global,reloc=2,class=CODE,delta=1,group=3
    26                           	psect	text10,global,reloc=2,class=CODE,delta=1,group=2
    27                           	psect	text11,global,reloc=2,class=CODE,delta=1,group=2
    28                           	psect	text12,global,reloc=2,class=CODE,delta=1,group=3
    29                           	psect	text13,global,reloc=2,class=CODE,delta=1
    30                           	psect	text14,global,reloc=2,class=CODE,delta=1
    31                           	psect	text15,global,reloc=2,class=CODE,delta=1
    32                           	psect	text16,global,reloc=2,class=CODE,delta=1
    33                           	psect	text17,global,reloc=2,class=CODE,delta=1
    34                           	psect	text18,global,reloc=2,class=CODE,delta=1
    35                           	psect	text19,global,reloc=2,class=CODE,delta=1
    36                           	psect	text20,global,reloc=2,class=CODE,delta=1
    37                           	psect	text21,global,reloc=2,class=CODE,delta=1
    38                           	psect	text22,global,reloc=2,class=CODE,delta=1
    39                           	psect	text23,global,reloc=2,class=CODE,delta=1
    40                           	psect	text24,global,reloc=2,class=CODE,delta=1
    41                           	psect	text25,global,reloc=2,class=CODE,delta=1
    42                           	psect	text26,global,reloc=2,class=CODE,delta=1
    43                           	psect	text27,global,reloc=2,class=CODE,delta=1
    44                           	psect	text28,global,reloc=2,class=CODE,delta=1
    45                           	psect	text29,global,reloc=2,class=CODE,delta=1
    46                           	psect	text30,global,reloc=2,class=CODE,delta=1
    47                           	psect	text31,global,reloc=2,class=CODE,delta=1
    48                           	psect	text32,global,reloc=2,class=CODE,delta=1
    49                           	psect	text33,global,reloc=2,class=CODE,delta=1
    50                           	psect	text34,global,reloc=2,class=CODE,delta=1
    51                           	psect	text35,global,reloc=2,class=CODE,delta=1
    52                           	psect	text36,global,reloc=2,class=CODE,delta=1
    53                           	psect	text37,global,reloc=2,class=CODE,delta=1
    54                           	psect	text38,global,reloc=2,class=CODE,delta=1
    55                           	psect	text39,global,reloc=2,class=CODE,delta=1
    56                           	psect	text40,global,reloc=2,class=CODE,delta=1
    57                           	psect	text41,global,reloc=2,class=CODE,delta=1
    58                           	psect	text42,global,reloc=2,class=CODE,delta=1
    59                           	psect	text43,global,reloc=4,class=CODE,delta=1
    60                           	psect	text44,global,reloc=4,class=CODE,delta=1
    61                           	psect	text45,global,reloc=2,class=CODE,delta=1
    62                           	psect	text46,global,reloc=2,class=CODE,delta=1
    63                           	psect	text47,global,reloc=4,class=CODE,delta=1
    64                           	psect	text48,global,reloc=2,class=CODE,delta=1
    65                           	psect	text49,global,reloc=4,class=CODE,delta=1
    66                           	psect	text50,global,reloc=2,class=CODE,delta=1
    67                           	psect	text51,global,reloc=4,class=CODE,delta=1
    68                           	psect	text52,global,reloc=2,class=CODE,delta=1
    69                           	psect	text53,global,reloc=2,class=CODE,delta=1
    70                           	psect	text54,global,reloc=2,class=CODE,delta=1
    71                           	psect	text55,global,reloc=2,class=CODE,delta=1
    72                           	psect	text56,global,reloc=2,class=CODE,delta=1
    73                           	psect	text57,global,reloc=4,class=CODE,delta=1
    74                           	psect	text58,global,reloc=2,class=CODE,delta=1
    75                           	psect	text59,global,reloc=4,class=CODE,delta=1
    76                           	psect	text60,global,reloc=2,class=CODE,delta=1
    77                           	psect	text61,global,reloc=2,class=CODE,delta=1
    78                           	psect	text62,global,reloc=2,class=CODE,delta=1
    79                           	psect	text63,global,reloc=2,class=CODE,delta=1
    80                           	psect	text64,global,reloc=2,class=CODE,delta=1
    81                           	psect	ivt0x8,global,reloc=2,class=CODE,delta=1,noexec,keep,optim=
    82                           	psect	intsave_regs,global,class=BIGRAM,space=1,delta=1,noexec
    83                           	psect	text65,global,reloc=2,class=CODE,delta=1
    84                           	psect	rparam,global,class=COMRAM,space=1,delta=1,noexec
    85                           	psect	idloc,global,abs,ovrld,class=IDLOC,space=5,delta=1,noexec
    86                           	psect	config,global,abs,ovrld,class=CONFIG,space=4,delta=1,noexec
    87  0000                     
    88                           ; Version 2.20
    89                           ; Generated 05/05/2020 GMT
    90                           ; 
    91                           ; Copyright © 2020, Microchip Technology Inc. and its subsidiaries ("Microchip")
    92                           ; All rights reserved.
    93                           ; 
    94                           ; This software is developed by Microchip Technology Inc. and its subsidiaries ("Microch
      +                          ip").
    95                           ; 
    96                           ; Redistribution and use in source and binary forms, with or without modification, are
    97                           ; permitted provided that the following conditions are met:
    98                           ; 
    99                           ;     1. Redistributions of source code must retain the above copyright notice, this lis
      +                          t of
   100                           ;        conditions and the following disclaimer.
   101                           ; 
   102                           ;     2. Redistributions in binary form must reproduce the above copyright notice, this 
      +                          list
   103                           ;        of conditions and the following disclaimer in the documentation and/or other
   104                           ;        materials provided with the distribution.
   105                           ; 
   106                           ;     3. Microchip's name may not be used to endorse or promote products derived from th
      +                          is
   107                           ;        software without specific prior written permission.
   108                           ; 
   109                           ; THIS SOFTWARE IS PROVIDED BY MICROCHIP "AS IS" AND ANY EXPRESS OR IMPLIED WARRANTIES,
   110                           ; INCLUDING, BUT NOT LIMITED TO, THE IMPLIED WARRANTIES OF MERCHANTABILITY AND FITNESS F
      +                          OR
   111                           ; PURPOSE ARE DISCLAIMED.  IN NO EVENT SHALL MICROCHIP BE LIABLE FOR ANY DIRECT, INDIREC
      +                          T,
   112                           ; INCIDENTAL, SPECIAL, EXEMPLARY, OR CONSEQUENTIAL DAMAGES (INCLUDING BUT NOT LIMITED TO
   113                           ; PROCUREMENT OF SUBSTITUTE GOODS OR SERVICES; LOSS OF USE, DATA OR PROFITS; OR BUSINESS
   114                           ; INTERRUPTION) HOWSOEVER CAUSED AND ON ANY THEORY OF LIABILITY, WHETHER IN CONTRACT, ST
      +                          RICT
   115                           ; LIABILITY, OR TORT (INCLUDING NEGLIGENCE OR OTHERWISE) ARISING IN ANY WAY OUT OF THE U
      +                          SE OF
   116                           ; THIS SOFTWARE, EVEN IF ADVISED OF THE POSSIBILITY OF SUCH DAMAGE.
   117                           ; 
   118                           ; 
   119                           ; Code-generator required, PIC18F47K42 Definitions
   120                           ; 
   121                           ; SFR Addresses
   122  0000                     
   123                           	psect	idataBANK0
   124  003284                     __pidataBANK0:
   125                           	callstack 0
   126                           
   127                           ;initializer for controller_work@pwm_val
   128  003284  01AE               	dw	430
   129                           
   130                           ;initializer for _build_time
   131  003286  2D                 	db	low STR_2
   132                           
   133                           ;initializer for _build_date
   134  003287  21                 	db	low STR_1
   135                           
   136                           	psect	smallconst
   137  002000                     __psmallconst:
   138                           	callstack 0
   139  002000  00                 	db	0
   140  002001                     _build_version:
   141                           	callstack 0
   142  002001  31                 	db	49
   143  002002  2E                 	db	46
   144  002003  30                 	db	48
   145  002004  00                 	db	0
   146  002005  00                 	db	0
   147  002006                     __end_of_build_version:
   148                           	callstack 0
   149  0000                     _PIE6bits	set	14742
   150  0000                     _PIE3bits	set	14739
   151  0000                     _PIR3bits	set	14755
   152  0000                     _PIE8bits	set	14744
   153  0000                     _PIR8bits	set	14760
   154  0000                     _PMD7	set	14791
   155  0000                     _PMD6	set	14790
   156  0000                     _PMD5	set	14789
   157  0000                     _PMD4	set	14788
   158  0000                     _PMD3	set	14787
   159  0000                     _PMD2	set	14786
   160  0000                     _PMD1	set	14785
   161  0000                     _PMD0	set	14784
   162  0000                     _OSCTUNE	set	14814
   163  0000                     _OSCFRQ	set	14815
   164  0000                     _OSCEN	set	14813
   165  0000                     _OSCCON3	set	14811
   166  0000                     _OSCCON1	set	14809
   167  0000                     _IPR8bits	set	14728
   168  0000                     _IPR3bits	set	14723
   169  0000                     _IPR6bits	set	14726
   170  0000                     _PLLR	set	118496
   171  0000                     _U1RXPPS	set	15077
   172  0000                     _U2RXPPS	set	15080
   173  0000                     _INLVLE	set	14980
   174  0000                     _INLVLD	set	14964
   175  0000                     _INLVLC	set	14948
   176  0000                     _INLVLB	set	14932
   177  0000                     _INLVLA	set	14916
   178  0000                     _SLRCONE	set	14979
   179  0000                     _SLRCOND	set	14963
   180  0000                     _SLRCONC	set	14947
   181  0000                     _SLRCONB	set	14931
   182  0000                     _SLRCONA	set	14915
   183  0000                     _ODCOND	set	14962
   184  0000                     _ODCONC	set	14946
   185  0000                     _ODCONB	set	14930
   186  0000                     _ODCONA	set	14914
   187  0000                     _ODCONE	set	14978
   188  0000                     _RD1I2C	set	14971
   189  0000                     _RD0I2C	set	14970
   190  0000                     _RC4I2C	set	14955
   191  0000                     _RC3I2C	set	14954
   192  0000                     _RB2I2C	set	14939
   193  0000                     _RB1I2C	set	14938
   194  0000                     _WPUC	set	14945
   195  0000                     _WPUA	set	14913
   196  0000                     _WPUB	set	14929
   197  0000                     _WPUE	set	14977
   198  0000                     _WPUD	set	14961
   199  0000                     _ANSELA	set	14912
   200  0000                     _ANSELE	set	14976
   201  0000                     _ANSELB	set	14928
   202  0000                     _ANSELC	set	14944
   203  0000                     _ANSELD	set	14960
   204  0000                     _U1RXB	set	15848
   205  0000                     _U1TXB	set	15850
   206  0000                     _U1ERRIRbits	set	15865
   207  0000                     _U1ERRIE	set	15866
   208  0000                     _U1ERRIR	set	15865
   209  0000                     _U1UIR	set	15864
   210  0000                     _U1FIFO	set	15863
   211  0000                     _U1BRGH	set	15862
   212  0000                     _U1BRGL	set	15861
   213  0000                     _U1CON2	set	15860
   214  0000                     _U1CON1	set	15859
   215  0000                     _U1CON0	set	15858
   216  0000                     _U1P3H	set	15857
   217  0000                     _U1P3L	set	15856
   218  0000                     _U1P2H	set	15855
   219  0000                     _U1P2L	set	15854
   220  0000                     _U1P1H	set	15853
   221  0000                     _U1P1L	set	15852
   222  0000                     _U2RXB	set	15824
   223  0000                     _U2TXB	set	15826
   224  0000                     _U2ERRIRbits	set	15841
   225  0000                     _U2ERRIE	set	15842
   226  0000                     _U2ERRIR	set	15841
   227  0000                     _U2UIR	set	15840
   228  0000                     _U2FIFO	set	15839
   229  0000                     _U2BRGH	set	15838
   230  0000                     _U2BRGL	set	15837
   231  0000                     _U2CON2	set	15836
   232  0000                     _U2CON1	set	15835
   233  0000                     _U2CON0	set	15834
   234  0000                     _U2P3L	set	15832
   235  0000                     _U2P2L	set	15830
   236  0000                     _U2P1L	set	15828
   237  0000                     _ADRESL	set	16111
   238  0000                     _ADRESH	set	16112
   239  0000                     _ADCON0bits	set	16120
   240  0000                     _ADCON0	set	16120
   241  0000                     _ADCLK	set	16127
   242  0000                     _ADACT	set	16126
   243  0000                     _ADREF	set	16125
   244  0000                     _ADSTAT	set	16124
   245  0000                     _ADCON3	set	16123
   246  0000                     _ADCON2	set	16122
   247  0000                     _ADCON1	set	16121
   248  0000                     _ADPREH	set	16119
   249  0000                     _ADPREL	set	16118
   250  0000                     _ADCAP	set	16117
   251  0000                     _ADACQH	set	16116
   252  0000                     _ADACQL	set	16115
   253  0000                     _ADPCH	set	16113
   254  0000                     _ADRPT	set	16108
   255  0000                     _ADACCU	set	16106
   256  0000                     _ADSTPTH	set	16101
   257  0000                     _ADSTPTL	set	16100
   258  0000                     _ADUTHH	set	16097
   259  0000                     _ADUTHL	set	16096
   260  0000                     _ADLTHH	set	16095
   261  0000                     _ADLTHL	set	16094
   262  0000                     _PORTAbits	set	16330
   263  0000                     _LATDbits	set	16317
   264  0000                     _LATAbits	set	16314
   265  0000                     _T0CON0bits	set	16312
   266  0000                     _T0CON0	set	16312
   267  0000                     _TMR0L	set	16310
   268  0000                     _TMR0H	set	16311
   269  0000                     _T0CON1	set	16313
   270  0000                     _LATEbits	set	16318
   271  0000                     _T5CONbits	set	16282
   272  0000                     _T5CON	set	16282
   273  0000                     _TMR5L	set	16280
   274  0000                     _TMR5H	set	16281
   275  0000                     _T5CLK	set	16285
   276  0000                     _T5GATE	set	16284
   277  0000                     _T5GCON	set	16283
   278  0000                     _TRISD	set	16325
   279  0000                     _TRISC	set	16324
   280  0000                     _TRISB	set	16323
   281  0000                     _TRISA	set	16322
   282  0000                     _TRISE	set	16326
   283  0000                     _LATC	set	16316
   284  0000                     _LATB	set	16315
   285  0000                     _LATA	set	16314
   286  0000                     _LATD	set	16317
   287  0000                     _LATE	set	16318
   288  0000                     _IVTBASEL	set	16341
   289  0000                     _IVTBASEH	set	16342
   290  0000                     _IVTBASEU	set	16343
   291  0000                     _IVTLOCKbits	set	16340
   292  0000                     _IVTLOCK	set	16340
   293  0000                     _INTCON0bits	set	16338
   294  0000                     _GIE	set	130711
   295  002006                     STR_3:
   296                           
   297                           ; BSR set to: 0
   298  002006  25                 	db	37
   299  002007  6C                 	db	108	;'l'
   300  002008  75                 	db	117	;'u'
   301  002009  3A                 	db	58	;':'
   302  00200A  20                 	db	32
   303  00200B  46                 	db	70	;'F'
   304  00200C  6C                 	db	108	;'l'
   305  00200D  6F                 	db	111	;'o'
   306  00200E  77                 	db	119	;'w'
   307  00200F  20                 	db	32
   308  002010  25                 	db	37
   309  002011  6C                 	db	108	;'l'
   310  002012  75                 	db	117	;'u'
   311  002013  2C                 	db	44
   312  002014  20                 	db	32
   313  002015  54                 	db	84	;'T'
   314  002016  65                 	db	101	;'e'
   315  002017  6D                 	db	109	;'m'
   316  002018  70                 	db	112	;'p'
   317  002019  20                 	db	32
   318  00201A  25                 	db	37
   319  00201B  6C                 	db	108	;'l'
   320  00201C  75                 	db	117	;'u'
   321  00201D  20                 	db	32
   322  00201E  0D                 	db	13
   323  00201F  0A                 	db	10
   324  002020  00                 	db	0
   325  002021                     STR_1:
   326                           
   327                           ; BSR set to: 0
   328  002021  41                 	db	65	;'A'
   329  002022  75                 	db	117	;'u'
   330  002023  67                 	db	103	;'g'
   331  002024  20                 	db	32
   332  002025  31                 	db	49	;'1'
   333  002026  37                 	db	55	;'7'
   334  002027  20                 	db	32
   335  002028  32                 	db	50	;'2'
   336  002029  30                 	db	48	;'0'
   337  00202A  32                 	db	50	;'2'
   338  00202B  30                 	db	48	;'0'
   339  00202C  00                 	db	0
   340  00202D                     STR_2:
   341                           
   342                           ; BSR set to: 0
   343  00202D  31                 	db	49	;'1'
   344  00202E  31                 	db	49	;'1'
   345  00202F  3A                 	db	58	;':'
   346  002030  30                 	db	48	;'0'
   347  002031  30                 	db	48	;'0'
   348  002032  3A                 	db	58	;':'
   349  002033  35                 	db	53	;'5'
   350  002034  35                 	db	53	;'5'
   351  002035  00                 	db	0
   352  002036                     STR_4:
   353                           
   354                           ; BSR set to: 0
   355  002036  6C                 	db	108	;'l'
   356  002037  75                 	db	117	;'u'
   357  002038  00                 	db	0
   358  002039  00                 	db	0	; dummy byte at the end
   359  0000                     
   360                           ; #config settings
   361                           
   362                           	psect	cinit
   363  002C9C                     __pcinit:
   364                           	callstack 0
   365  002C9C                     start_initialization:
   366                           	callstack 0
   367  002C9C                     __initialization:
   368                           	callstack 0
   369                           
   370                           ; Initialize objects allocated to BANK0 (4 bytes)
   371                           ; load TBLPTR registers with __pidataBANK0
   372  002C9C  0E84               	movlw	low __pidataBANK0
   373  002C9E  6EF6               	movwf	tblptrl,c
   374  002CA0  0E32               	movlw	high __pidataBANK0
   375  002CA2  6EF7               	movwf	tblptrh,c
   376  002CA4  0E00               	movlw	low (__pidataBANK0 shr (0+16))
   377  002CA6  6EF8               	movwf	tblptru,c
   378  002CA8  EE00  F0B2         	lfsr	0,__pdataBANK0
   379  002CAC  EE10 F004          	lfsr	1,4
   380  002CB0                     copy_data0:
   381  002CB0  0009               	tblrd		*+
   382  002CB2  006F FFD7 FFEE     	movff	tablat,postinc0
   383  002CB8  50E5               	movf	postdec1,w,c
   384  002CBA  50E1               	movf	fsr1l,w,c
   385  002CBC  E1F9               	bnz	copy_data0
   386                           
   387                           ; Clear objects allocated to BANK2 (192 bytes)
   388  002CBE  EE00  F200         	lfsr	0,__pbssBANK2
   389  002CC2  0EC0               	movlw	192
   390  002CC4                     clear_0:
   391  002CC4  6AEE               	clrf	postinc0,c
   392  002CC6  06E8               	decf	wreg,f,c
   393  002CC8  E1FD               	bnz	clear_0
   394                           
   395                           ; Clear objects allocated to BANK1 (246 bytes)
   396  002CCA  EE00  F100         	lfsr	0,__pbssBANK1
   397  002CCE  0EF6               	movlw	246
   398  002CD0                     clear_1:
   399  002CD0  6AEE               	clrf	postinc0,c
   400  002CD2  06E8               	decf	wreg,f,c
   401  002CD4  E1FD               	bnz	clear_1
   402                           
   403                           ; Clear objects allocated to BANK0 (58 bytes)
   404  002CD6  EE00  F060         	lfsr	0,__pbssBANK0
   405  002CDA  0E3A               	movlw	58
   406  002CDC                     clear_2:
   407  002CDC  6AEE               	clrf	postinc0,c
   408  002CDE  06E8               	decf	wreg,f,c
   409  002CE0  E1FD               	bnz	clear_2
   410                           
   411                           ; Clear objects allocated to COMRAM (6 bytes)
   412  002CE2  6A57               	clrf	(__pbssCOMRAM+5)& (0+255),c
   413  002CE4  6A56               	clrf	(__pbssCOMRAM+4)& (0+255),c
   414  002CE6  6A55               	clrf	(__pbssCOMRAM+3)& (0+255),c
   415  002CE8  6A54               	clrf	(__pbssCOMRAM+2)& (0+255),c
   416  002CEA  6A53               	clrf	(__pbssCOMRAM+1)& (0+255),c
   417  002CEC  6A52               	clrf	__pbssCOMRAM& (0+255),c
   418                           
   419                           ;
   420                           ; Setup IVTBASE
   421                           ;
   422  002CEE  0E08               	movlw	(ivt0x8_base shr 0)& (0+255)
   423  002CF0  6ED5               	movwf	213,c
   424  002CF2  0E00               	movlw	(ivt0x8_base shr (0+8))& (0+255)
   425  002CF4  6ED6               	movwf	214,c
   426  002CF6  0E00               	movlw	(ivt0x8_base shr (0+16))& (0+255)
   427  002CF8  6ED7               	movwf	215,c
   428  002CFA                     end_of_initialization:
   429                           	callstack 0
   430  002CFA                     __end_of__initialization:
   431                           	callstack 0
   432  002CFA  0100               	movlb	0
   433  002CFC  EFCA  F011         	goto	_main	;jump to C main() function
   434                           
   435                           	psect	bssCOMRAM
   436  000052                     __pbssCOMRAM:
   437                           	callstack 0
   438  000052                     _timer0ReloadVal16bit:
   439                           	callstack 0
   440  000052                     	ds	2
   441  000054                     _uart1RxHead:
   442                           	callstack 0
   443  000054                     	ds	1
   444  000055                     _uart1TxTail:
   445                           	callstack 0
   446  000055                     	ds	1
   447  000056                     _uart2RxHead:
   448                           	callstack 0
   449  000056                     	ds	1
   450  000057                     _uart2TxTail:
   451                           	callstack 0
   452  000057                     	ds	1
   453                           
   454                           	psect	bssBANK0
   455  000060                     __pbssBANK0:
   456                           	callstack 0
   457  000060                     _UART1_ErrorHandler:
   458                           	callstack 0
   459  000060                     	ds	3
   460  000063                     _UART1_OverrunErrorHandler:
   461                           	callstack 0
   462  000063                     	ds	3
   463  000066                     _UART1_FramingErrorHandler:
   464                           	callstack 0
   465  000066                     	ds	3
   466  000069                     _UART2_ErrorHandler:
   467                           	callstack 0
   468  000069                     	ds	3
   469  00006C                     _UART2_OverrunErrorHandler:
   470                           	callstack 0
   471  00006C                     	ds	3
   472  00006F                     _UART2_FramingErrorHandler:
   473                           	callstack 0
   474  00006F                     	ds	3
   475  000072                     _TMR0_InterruptHandler:
   476                           	callstack 0
   477  000072                     	ds	3
   478  000075                     _TMR5_InterruptHandler:
   479                           	callstack 0
   480  000075                     	ds	3
   481  000078                     _UART1_TxInterruptHandler:
   482                           	callstack 0
   483  000078                     	ds	3
   484  00007B                     _UART1_RxInterruptHandler:
   485                           	callstack 0
   486  00007B                     	ds	3
   487  00007E                     _UART2_TxInterruptHandler:
   488                           	callstack 0
   489  00007E                     	ds	3
   490  000081                     _UART2_RxInterruptHandler:
   491                           	callstack 0
   492  000081                     	ds	3
   493  000084                     _nout:
   494                           	callstack 0
   495  000084                     	ds	2
   496  000086                     _width:
   497                           	callstack 0
   498  000086                     	ds	2
   499  000088                     _prec:
   500                           	callstack 0
   501  000088                     	ds	2
   502  00008A                     _flags:
   503                           	callstack 0
   504  00008A                     	ds	2
   505  00008C                     _timer5ReloadVal:
   506                           	callstack 0
   507  00008C                     	ds	2
   508  00008E                     _max_heat_time:
   509                           	callstack 0
   510  00008E                     	ds	2
   511  000090                     _uart1RxLastError:
   512                           	callstack 0
   513  000090                     	ds	1
   514  000091                     _uart1RxCount:
   515                           	callstack 0
   516  000091                     	ds	1
   517  000092                     _uart1RxTail:
   518                           	callstack 0
   519  000092                     	ds	1
   520  000093                     _uart1TxBufferRemaining:
   521                           	callstack 0
   522  000093                     	ds	1
   523  000094                     _uart1TxHead:
   524                           	callstack 0
   525  000094                     	ds	1
   526  000095                     _uart2RxLastError:
   527                           	callstack 0
   528  000095                     	ds	1
   529  000096                     _uart2RxCount:
   530                           	callstack 0
   531  000096                     	ds	1
   532  000097                     _uart2RxTail:
   533                           	callstack 0
   534  000097                     	ds	1
   535  000098                     _uart2TxBufferRemaining:
   536                           	callstack 0
   537  000098                     	ds	1
   538  000099                     _uart2TxHead:
   539                           	callstack 0
   540  000099                     	ds	1
   541                           
   542                           	psect	dataBANK0
   543  0000B2                     __pdataBANK0:
   544                           	callstack 0
   545  0000B2                     controller_work@pwm_val:
   546                           	callstack 0
   547  0000B2                     	ds	2
   548  0000B4                     _build_time:
   549                           	callstack 0
   550  0000B4                     	ds	1
   551  0000B5                     _build_date:
   552                           	callstack 0
   553  0000B5                     	ds	1
   554                           
   555                           	psect	bssBANK1
   556  000100                     __pbssBANK1:
   557                           	callstack 0
   558  000100                     _uart1RxStatusBuffer:
   559                           	callstack 0
   560  000100                     	ds	64
   561  000140                     _uart2RxStatusBuffer:
   562                           	callstack 0
   563  000140                     	ds	64
   564  000180                     _uart2TxBuffer:
   565                           	callstack 0
   566  000180                     	ds	64
   567  0001C0                     _tickCount:
   568                           	callstack 0
   569  0001C0                     	ds	10
   570  0001CA                     _count:
   571                           	callstack 0
   572  0001CA                     	ds	4
   573  0001CE                     _temp:
   574                           	callstack 0
   575  0001CE                     	ds	4
   576  0001D2                     _flow:
   577                           	callstack 0
   578  0001D2                     	ds	4
   579  0001D6                     _dbuf:
   580                           	callstack 0
   581  0001D6                     	ds	32
   582                           
   583                           	psect	bssBANK2
   584  000200                     __pbssBANK2:
   585                           	callstack 0
   586  000200                     _uart1RxBuffer:
   587                           	callstack 0
   588  000200                     	ds	64
   589  000240                     _uart1TxBuffer:
   590                           	callstack 0
   591  000240                     	ds	64
   592  000280                     _uart2RxBuffer:
   593                           	callstack 0
   594  000280                     	ds	64
   595                           
   596                           	psect	cstackBANK3
   597  000300                     __pcstackBANK3:
   598                           	callstack 0
   599  000300                     main@buffer:
   600                           	callstack 0
   601                           
   602                           ; 80 bytes @ 0x0
   603  000300                     	ds	80
   604  000350                     main@pwm_value:
   605                           	callstack 0
   606                           
   607                           ; 2 bytes @ 0x50
   608  000350                     	ds	2
   609                           
   610                           	psect	cstackBANK0
   611  00009A                     __pcstackBANK0:
   612                           	callstack 0
   613  00009A                     ?_sprintf:
   614                           	callstack 0
   615  00009A                     sprintf@s:
   616                           	callstack 0
   617                           
   618                           ; 2 bytes @ 0x0
   619  00009A                     	ds	2
   620  00009C                     sprintf@fmt:
   621                           	callstack 0
   622                           
   623                           ; 1 bytes @ 0x2
   624  00009C                     	ds	15
   625  0000AB                     sprintf@ap:
   626                           	callstack 0
   627                           
   628                           ; 1 bytes @ 0x11
   629  0000AB                     	ds	1
   630  0000AC                     sprintf@f:
   631                           	callstack 0
   632                           
   633                           ; 6 bytes @ 0x12
   634  0000AC                     	ds	6
   635                           
   636                           	psect	cstackCOMRAM
   637  000001                     __pcstackCOMRAM:
   638                           	callstack 0
   639  000001                     ??_TMR5_DefaultInterruptHandler:
   640  000001                     TMR5_WriteTimer@timerVal:
   641                           	callstack 0
   642                           
   643                           ; 2 bytes @ 0x0
   644  000001                     	ds	2
   645  000003                     
   646                           ; 1 bytes @ 0x2
   647  000003                     	ds	2
   648  000005                     TMR0_ISR@i:
   649                           	callstack 0
   650                           
   651                           ; 1 bytes @ 0x4
   652  000005                     	ds	1
   653  000006                     ?_strlen:
   654                           	callstack 0
   655  000006                     ?_strncmp:
   656                           	callstack 0
   657  000006                     ?_ADCC_GetConversionResult:
   658                           	callstack 0
   659  000006                     ?___lodiv:
   660                           	callstack 0
   661  000006                     ?___lomod:
   662                           	callstack 0
   663  000006                     ADCC_StartConversion@channel:
   664                           	callstack 0
   665  000006                     INTERRUPT_Initialize@state:
   666                           	callstack 0
   667  000006                     strncmp@_l:
   668                           	callstack 0
   669  000006                     StartTimer@count:
   670                           	callstack 0
   671  000006                     fputc@c:
   672                           	callstack 0
   673  000006                     strlen@s:
   674                           	callstack 0
   675  000006                     TMR5_SetInterruptHandler@InterruptHandler:
   676                           	callstack 0
   677  000006                     TMR0_SetInterruptHandler@InterruptHandler:
   678                           	callstack 0
   679  000006                     UART2_SetFramingErrorHandler@interruptHandler:
   680                           	callstack 0
   681  000006                     UART2_SetOverrunErrorHandler@interruptHandler:
   682                           	callstack 0
   683  000006                     UART2_SetErrorHandler@interruptHandler:
   684                           	callstack 0
   685  000006                     UART2_SetRxInterruptHandler@InterruptHandler:
   686                           	callstack 0
   687  000006                     UART2_SetTxInterruptHandler@InterruptHandler:
   688                           	callstack 0
   689  000006                     UART1_SetFramingErrorHandler@interruptHandler:
   690                           	callstack 0
   691  000006                     UART1_SetOverrunErrorHandler@interruptHandler:
   692                           	callstack 0
   693  000006                     UART1_SetErrorHandler@interruptHandler:
   694                           	callstack 0
   695  000006                     UART1_SetRxInterruptHandler@InterruptHandler:
   696                           	callstack 0
   697  000006                     UART1_SetTxInterruptHandler@InterruptHandler:
   698                           	callstack 0
   699  000006                     ___lodiv@dividend:
   700                           	callstack 0
   701  000006                     ___lomod@dividend:
   702                           	callstack 0
   703                           
   704                           ; 8 bytes @ 0x5
   705  000006                     	ds	1
   706  000007                     strncmp@_r:
   707                           	callstack 0
   708                           
   709                           ; 1 bytes @ 0x6
   710  000007                     	ds	1
   711  000008                     ??_StartTimer:
   712  000008                     ??_ADCC_GetConversionResult:
   713  000008                     TimerDone@timer:
   714                           	callstack 0
   715  000008                     fputc@fp:
   716                           	callstack 0
   717  000008                     strlen@a:
   718                           	callstack 0
   719  000008                     strncmp@n:
   720                           	callstack 0
   721                           
   722                           ; 2 bytes @ 0x7
   723  000008                     	ds	1
   724  000009                     ??_TMR5_Initialize:
   725  000009                     ??_TMR0_Initialize:
   726  000009                     ??_fputc:
   727                           
   728                           ; 1 bytes @ 0x8
   729  000009                     	ds	1
   730  00000A                     ??_strncmp:
   731  00000A                     ?_controller_work:
   732                           	callstack 0
   733  00000A                     StartTimer@timer:
   734                           	callstack 0
   735                           
   736                           ; 1 bytes @ 0x9
   737  00000A                     	ds	1
   738  00000B                     strncmp@l:
   739                           	callstack 0
   740  00000B                     WaitMs@numMilliseconds:
   741                           	callstack 0
   742                           
   743                           ; 2 bytes @ 0xA
   744  00000B                     	ds	1
   745  00000C                     strncmp@r:
   746                           	callstack 0
   747                           
   748                           ; 1 bytes @ 0xB
   749  00000C                     	ds	1
   750  00000D                     
   751                           ; 1 bytes @ 0xC
   752  00000D                     	ds	1
   753  00000E                     fputs@s:
   754                           	callstack 0
   755  00000E                     ___lodiv@divisor:
   756                           	callstack 0
   757  00000E                     ___lomod@divisor:
   758                           	callstack 0
   759                           
   760                           ; 8 bytes @ 0xD
   761  00000E                     	ds	2
   762  000010                     fputs@fp:
   763                           	callstack 0
   764                           
   765                           ; 1 bytes @ 0xF
   766  000010                     	ds	1
   767  000011                     fputs@c:
   768                           	callstack 0
   769                           
   770                           ; 1 bytes @ 0x10
   771  000011                     	ds	1
   772  000012                     fputs@i:
   773                           	callstack 0
   774                           
   775                           ; 2 bytes @ 0x11
   776  000012                     	ds	2
   777  000014                     ?_pad:
   778                           	callstack 0
   779  000014                     pad@fp:
   780                           	callstack 0
   781                           
   782                           ; 1 bytes @ 0x13
   783  000014                     	ds	1
   784  000015                     pad@buf:
   785                           	callstack 0
   786                           
   787                           ; 2 bytes @ 0x14
   788  000015                     	ds	1
   789  000016                     ___lomod@counter:
   790                           	callstack 0
   791  000016                     ___lodiv@quotient:
   792                           	callstack 0
   793                           
   794                           ; 8 bytes @ 0x15
   795  000016                     	ds	1
   796  000017                     pad@p:
   797                           	callstack 0
   798                           
   799                           ; 2 bytes @ 0x16
   800  000017                     	ds	2
   801  000019                     ??_pad:
   802                           
   803                           ; 1 bytes @ 0x18
   804  000019                     	ds	1
   805  00001A                     pad@i:
   806                           	callstack 0
   807                           
   808                           ; 2 bytes @ 0x19
   809  00001A                     	ds	2
   810  00001C                     pad@w:
   811                           	callstack 0
   812                           
   813                           ; 2 bytes @ 0x1B
   814  00001C                     	ds	2
   815  00001E                     ___lodiv@counter:
   816                           	callstack 0
   817                           
   818                           ; 1 bytes @ 0x1D
   819  00001E                     	ds	1
   820  00001F                     ?_utoa:
   821                           	callstack 0
   822  00001F                     utoa@fp:
   823                           	callstack 0
   824                           
   825                           ; 1 bytes @ 0x1E
   826  00001F                     	ds	1
   827  000020                     utoa@d:
   828                           	callstack 0
   829                           
   830                           ; 8 bytes @ 0x1F
   831  000020                     	ds	8
   832  000028                     ??_utoa:
   833                           
   834                           ; 1 bytes @ 0x27
   835  000028                     	ds	8
   836  000030                     utoa@p:
   837                           	callstack 0
   838                           
   839                           ; 2 bytes @ 0x2F
   840  000030                     	ds	2
   841  000032                     utoa@w:
   842                           	callstack 0
   843                           
   844                           ; 2 bytes @ 0x31
   845  000032                     	ds	2
   846  000034                     utoa@n:
   847                           	callstack 0
   848                           
   849                           ; 8 bytes @ 0x33
   850  000034                     	ds	8
   851  00003C                     utoa@i:
   852                           	callstack 0
   853                           
   854                           ; 2 bytes @ 0x3B
   855  00003C                     	ds	2
   856  00003E                     ?_vfpfcnvrt:
   857                           	callstack 0
   858  00003E                     vfpfcnvrt@fp:
   859                           	callstack 0
   860                           
   861                           ; 1 bytes @ 0x3D
   862  00003E                     	ds	1
   863  00003F                     vfpfcnvrt@fmt:
   864                           	callstack 0
   865                           
   866                           ; 1 bytes @ 0x3E
   867  00003F                     	ds	1
   868  000040                     vfpfcnvrt@ap:
   869                           	callstack 0
   870                           
   871                           ; 1 bytes @ 0x3F
   872  000040                     	ds	1
   873  000041                     ??_vfpfcnvrt:
   874                           
   875                           ; 1 bytes @ 0x40
   876  000041                     	ds	5
   877  000046                     vfpfcnvrt@llu:
   878                           	callstack 0
   879                           
   880                           ; 8 bytes @ 0x45
   881  000046                     	ds	8
   882  00004E                     ?_vfprintf:
   883                           	callstack 0
   884  00004E                     vfprintf@fp:
   885                           	callstack 0
   886                           
   887                           ; 1 bytes @ 0x4D
   888  00004E                     	ds	1
   889  00004F                     vfprintf@fmt:
   890                           	callstack 0
   891                           
   892                           ; 1 bytes @ 0x4E
   893  00004F                     	ds	1
   894  000050                     vfprintf@ap:
   895                           	callstack 0
   896                           
   897                           ; 1 bytes @ 0x4F
   898  000050                     	ds	1
   899  000051                     vfprintf@cfmt:
   900                           	callstack 0
   901                           
   902                           ; 1 bytes @ 0x50
   903  000051                     	ds	1
   904  000052                     
   905                           ; 1 bytes @ 0x51
   906 ;;
   907 ;;Main: autosize = 0, tempsize = 0, incstack = 0, save=0
   908 ;;
   909 ;; *************** function _main *****************
   910 ;; Defined at:
   911 ;;		line 77 in file "main.c"
   912 ;; Parameters:    Size  Location     Type
   913 ;;		None
   914 ;; Auto vars:     Size  Location     Type
   915 ;;  buffer         80    0[BANK3 ] unsigned char [80]
   916 ;;  pwm_value       2   80[BANK3 ] unsigned short 
   917 ;; Return value:  Size  Location     Type
   918 ;;                  1    wreg      void 
   919 ;; Registers used:
   920 ;;		wreg, fsr1l, fsr1h, fsr2l, fsr2h, status,2, status,0, tblptrl, tblptrh, tblptru, prodl, prodh, cstack
   921 ;; Tracked objects:
   922 ;;		On entry : 0/0
   923 ;;		On exit  : 3F/1
   924 ;;		Unchanged: 0/0
   925 ;; Data sizes:     COMRAM   BANK0   BANK1   BANK2   BANK3   BANK4   BANK5   BANK6   BANK7   BANK8   BANK9  BANK10  BANK1
      +1  BANK12  BANK13  BANK14  BANK15  BANK16  BANK17  BANK18  BANK19  BANK20  BANK21  BANK22  BANK23  BANK24  BANK25  BANK2
      +6  BANK27  BANK28  BANK29  BANK30  BANK31
   926 ;;      Params:         0       0       0       0       0       0       0       0       0       0       0       0       
      +0       0       0       0       0       0       0       0       0       0       0       0       0       0       0       
      +0       0       0       0       0       0
   927 ;;      Locals:         0       0       0       0      82       0       0       0       0       0       0       0       
      +0       0       0       0       0       0       0       0       0       0       0       0       0       0       0       
      +0       0       0       0       0       0
   928 ;;      Temps:          0       0       0       0       0       0       0       0       0       0       0       0       
      +0       0       0       0       0       0       0       0       0       0       0       0       0       0       0       
      +0       0       0       0       0       0
   929 ;;      Totals:         0       0       0       0      82       0       0       0       0       0       0       0       
      +0       0       0       0       0       0       0       0       0       0       0       0       0       0       0       
      +0       0       0       0       0       0
   930 ;;Total ram usage:       82 bytes
   931 ;; Hardware stack levels required when called:   12
   932 ;; This function calls:
   933 ;;		_SYSTEM_Initialize
   934 ;;		_StartTimer
   935 ;;		_TMR0_StartTimer
   936 ;;		_TimerDone
   937 ;;		_WaitMs
   938 ;;		_controller_work
   939 ;;		_sprintf
   940 ;; This function is called by:
   941 ;;		Startup code after reset
   942 ;; This function uses a non-reentrant model
   943 ;;
   944                           
   945                           	psect	text0
   946  002394                     __ptext0:
   947                           	callstack 0
   948  002394                     _main:
   949                           	callstack 19
   950                           
   951                           ;main.c: 83:  SYSTEM_Initialize();
   952                           
   953                           ;incstack = 0
   954  002394  ECFF  F017         	call	_SYSTEM_Initialize	;wreg free
   955                           
   956                           ; BSR set to: 57
   957                           ;main.c: 85:  (INTCON0bits.GIEH = 1);
   958  002398  8ED2               	bsf	210,7,c	;volatile
   959                           
   960                           ; BSR set to: 57
   961  00239A  9CBA               	bcf	186,6,c	;volatile
   962                           
   963                           ; BSR set to: 57
   964                           ;main.c: 88:  TMR0_StartTimer();
   965  00239C  EC44  F019         	call	_TMR0_StartTimer	;wreg free
   966                           
   967                           ; BSR set to: 57
   968  0023A0  82BD               	bsf	189,1,c	;volatile
   969                           
   970                           ; BSR set to: 57
   971                           ;main.c: 90:  WaitMs(5000);
   972  0023A2  0E13               	movlw	19
   973  0023A4  6E0C               	movwf	(WaitMs@numMilliseconds+1)^0,c
   974  0023A6  0E88               	movlw	136
   975  0023A8  6E0B               	movwf	WaitMs@numMilliseconds^0,c
   976  0023AA  ECEC  F017         	call	_WaitMs	;wreg free
   977  0023AE  92BD               	bcf	189,1,c	;volatile
   978                           
   979                           ;main.c: 95:  StartTimer(TMR_PWM, 2000);
   980  0023B0  0E07               	movlw	7
   981  0023B2  6E07               	movwf	(StartTimer@count+1)^0,c
   982  0023B4  0ED0               	movlw	208
   983  0023B6  6E06               	movwf	StartTimer@count^0,c
   984  0023B8  0E02               	movlw	2
   985  0023BA  ECD5  F017         	call	_StartTimer
   986                           
   987                           ;main.c: 96:  StartTimer(TMR_PERIOD, 1000);
   988  0023BE  0E03               	movlw	3
   989  0023C0  6E07               	movwf	(StartTimer@count+1)^0,c
   990  0023C2  0EE8               	movlw	232
   991  0023C4  6E06               	movwf	StartTimer@count^0,c
   992  0023C6  0E03               	movlw	3
   993  0023C8  ECD5  F017         	call	_StartTimer
   994                           
   995                           ;main.c: 97:  StartTimer(TMR_LOG, 10000);
   996  0023CC  0E27               	movlw	39
   997  0023CE  6E07               	movwf	(StartTimer@count+1)^0,c
   998  0023D0  0E10               	movlw	16
   999  0023D2  6E06               	movwf	StartTimer@count^0,c
  1000  0023D4  0E04               	movlw	4
  1001  0023D6  ECD5  F017         	call	_StartTimer
  1002  0023DA                     l3568:
  1003                           
  1004                           ;main.c: 100:   pwm_value = controller_work();
  1005  0023DA  ECB6  F012         	call	_controller_work	;wreg free
  1006  0023DE  C00A  F350         	movff	?_controller_work,main@pwm_value
  1007  0023E2  C00B  F351         	movff	?_controller_work+1,main@pwm_value+1
  1008                           
  1009                           ;main.c: 101:   if (TimerDone(TMR_PERIOD)) {
  1010  0023E6  0E03               	movlw	3
  1011  0023E8  EC90  F018         	call	_TimerDone
  1012  0023EC  0900               	iorlw	0
  1013  0023EE  B4D8               	btfsc	status,2,c
  1014  0023F0  D010               	goto	l892
  1015                           
  1016                           ;main.c: 102:    StartTimer(TMR_PERIOD, 1000);
  1017  0023F2  0E03               	movlw	3
  1018  0023F4  6E07               	movwf	(StartTimer@count+1)^0,c
  1019  0023F6  0EE8               	movlw	232
  1020  0023F8  6E06               	movwf	StartTimer@count^0,c
  1021  0023FA  0E03               	movlw	3
  1022  0023FC  ECD5  F017         	call	_StartTimer
  1023                           
  1024                           ;main.c: 103:    StartTimer(TMR_PWM, pwm_value);
  1025  002400  C350  F006         	movff	main@pwm_value,StartTimer@count
  1026  002404  C351  F007         	movff	main@pwm_value+1,StartTimer@count+1
  1027  002408  0E02               	movlw	2
  1028  00240A  ECD5  F017         	call	_StartTimer
  1029  00240E  8CBA               	bsf	186,6,c	;volatile
  1030  002410  88BA               	bsf	186,4,c	;volatile
  1031  002412                     l892:
  1032                           
  1033                           ;main.c: 107:   if (TimerDone(TMR_PWM)) {
  1034  002412  0E02               	movlw	2
  1035  002414  EC90  F018         	call	_TimerDone
  1036  002418  0900               	iorlw	0
  1037  00241A  B4D8               	btfsc	status,2,c
  1038  00241C  D009               	goto	l897
  1039                           
  1040                           ;main.c: 108:    StartTimer(TMR_PWM, 2000);
  1041  00241E  0E07               	movlw	7
  1042  002420  6E07               	movwf	(StartTimer@count+1)^0,c
  1043  002422  0ED0               	movlw	208
  1044  002424  6E06               	movwf	StartTimer@count^0,c
  1045  002426  0E02               	movlw	2
  1046  002428  ECD5  F017         	call	_StartTimer
  1047  00242C  9CBA               	bcf	186,6,c	;volatile
  1048  00242E  98BA               	bcf	186,4,c	;volatile
  1049  002430                     l897:
  1050                           
  1051                           ;main.c: 115:   if (TimerDone(TMR_LOG)) {
  1052  002430  0E04               	movlw	4
  1053  002432  EC90  F018         	call	_TimerDone
  1054  002436  0900               	iorlw	0
  1055  002438  B4D8               	btfsc	status,2,c
  1056  00243A  D7CF               	goto	l3568
  1057                           
  1058                           ;main.c: 116:    StartTimer(TMR_LOG, 10000);
  1059  00243C  0E27               	movlw	39
  1060  00243E  6E07               	movwf	(StartTimer@count+1)^0,c
  1061  002440  0E10               	movlw	16
  1062  002442  6E06               	movwf	StartTimer@count^0,c
  1063  002444  0E04               	movlw	4
  1064  002446  ECD5  F017         	call	_StartTimer
  1065  00244A  0004               	clrwdt		;# 
  1066                           
  1067                           ;main.c: 118:    sprintf(buffer, "%lu: Flow %lu, Temp %lu \r\n", count++, flow, temp);
  1068  00244C  0E00               	movlw	low main@buffer
  1069  00244E  0100               	movlb	0	; () banked
  1070  002450  6F9A               	movwf	sprintf@s& (0+255),b
  1071  002452  0E03               	movlw	high main@buffer
  1072  002454  6F9B               	movwf	(sprintf@s+1)& (0+255),b
  1073  002456  0E06               	movlw	low STR_3
  1074  002458  6F9C               	movwf	sprintf@fmt& (0+255),b
  1075  00245A  C1CA  F09D         	movff	_count,?_sprintf+3
  1076  00245E  C1CB  F09E         	movff	_count+1,?_sprintf+4
  1077  002462  C1CC  F09F         	movff	_count+2,?_sprintf+5
  1078  002466  C1CD  F0A0         	movff	_count+3,?_sprintf+6
  1079  00246A  C1D2  F0A1         	movff	_flow,?_sprintf+7
  1080  00246E  C1D3  F0A2         	movff	_flow+1,?_sprintf+8
  1081  002472  C1D4  F0A3         	movff	_flow+2,?_sprintf+9
  1082  002476  C1D5  F0A4         	movff	_flow+3,?_sprintf+10
  1083  00247A  C1CE  F0A5         	movff	_temp,?_sprintf+11
  1084  00247E  C1CF  F0A6         	movff	_temp+1,?_sprintf+12
  1085  002482  C1D0  F0A7         	movff	_temp+2,?_sprintf+13
  1086  002486  C1D1  F0A8         	movff	_temp+3,?_sprintf+14
  1087  00248A  EC1C  F017         	call	_sprintf	;wreg free
  1088                           
  1089                           ; BSR set to: 0
  1090  00248E  0E01               	movlw	1
  1091  002490  0101               	movlb	1	; () banked
  1092  002492  27CA               	addwf	_count& (0+255),f,b
  1093  002494  0E00               	movlw	0
  1094  002496  23CB               	addwfc	(_count+1)& (0+255),f,b
  1095  002498  23CC               	addwfc	(_count+2)& (0+255),f,b
  1096  00249A  23CD               	addwfc	(_count+3)& (0+255),f,b
  1097  00249C  D79E               	goto	l3568
  1098  00249E                     __end_of_main:
  1099                           	callstack 0
  1100                           
  1101 ;; *************** function _sprintf *****************
  1102 ;; Defined at:
  1103 ;;		line 9 in file "/opt/microchip/xc8/v2.20/pic/sources/c99/common/nf_sprintf.c"
  1104 ;; Parameters:    Size  Location     Type
  1105 ;;  s               2    0[BANK0 ] PTR unsigned char 
  1106 ;;		 -> main@buffer(80), 
  1107 ;;  fmt             1    2[BANK0 ] PTR const unsigned char 
  1108 ;;		 -> STR_3(27), 
  1109 ;; Auto vars:     Size  Location     Type
  1110 ;;  f               6   18[BANK0 ] struct _IO_FILE
  1111 ;;  ret             2    0        int 
  1112 ;;  ap              1   17[BANK0 ] PTR void [1]
  1113 ;;		 -> ?_sprintf(2), 
  1114 ;; Return value:  Size  Location     Type
  1115 ;;                  2    0[BANK0 ] int 
  1116 ;; Registers used:
  1117 ;;		wreg, fsr1l, fsr1h, fsr2l, fsr2h, status,2, status,0, tblptrl, tblptrh, tblptru, cstack
  1118 ;; Tracked objects:
  1119 ;;		On entry : 3F/0
  1120 ;;		On exit  : 3F/0
  1121 ;;		Unchanged: 0/0
  1122 ;; Data sizes:     COMRAM   BANK0   BANK1   BANK2   BANK3   BANK4   BANK5   BANK6   BANK7   BANK8   BANK9  BANK10  BANK1
      +1  BANK12  BANK13  BANK14  BANK15  BANK16  BANK17  BANK18  BANK19  BANK20  BANK21  BANK22  BANK23  BANK24  BANK25  BANK2
      +6  BANK27  BANK28  BANK29  BANK30  BANK31
  1123 ;;      Params:         0      15       0       0       0       0       0       0       0       0       0       0       
      +0       0       0       0       0       0       0       0       0       0       0       0       0       0       0       
      +0       0       0       0       0       0
  1124 ;;      Locals:         0       9       0       0       0       0       0       0       0       0       0       0       
      +0       0       0       0       0       0       0       0       0       0       0       0       0       0       0       
      +0       0       0       0       0       0
  1125 ;;      Temps:          0       0       0       0       0       0       0       0       0       0       0       0       
      +0       0       0       0       0       0       0       0       0       0       0       0       0       0       0       
      +0       0       0       0       0       0
  1126 ;;      Totals:         0      24       0       0       0       0       0       0       0       0       0       0       
      +0       0       0       0       0       0       0       0       0       0       0       0       0       0       0       
      +0       0       0       0       0       0
  1127 ;;Total ram usage:       24 bytes
  1128 ;; Hardware stack levels used:    1
  1129 ;; Hardware stack levels required when called:   11
  1130 ;; This function calls:
  1131 ;;		_vfprintf
  1132 ;; This function is called by:
  1133 ;;		_main
  1134 ;; This function uses a non-reentrant model
  1135 ;;
  1136                           
  1137                           	psect	text1
  1138  002E38                     __ptext1:
  1139                           	callstack 0
  1140  002E38                     _sprintf:
  1141                           	callstack 19
  1142                           
  1143                           ; BSR set to: 0
  1144                           
  1145                           ; BSR set to: 1
  1146                           ;incstack = 0
  1147  002E38  0E9D               	movlw	low (?_sprintf+3)
  1148  002E3A  6FAB               	movwf	sprintf@ap& (0+255),b
  1149  002E3C  C09A  F0AC         	movff	sprintf@s,sprintf@f
  1150  002E40  C09B  F0AD         	movff	sprintf@s+1,sprintf@f+1
  1151                           
  1152                           ; BSR set to: 0
  1153  002E44  0E00               	movlw	0
  1154  002E46  6FAF               	movwf	(sprintf@f+3)& (0+255),b
  1155  002E48  0E00               	movlw	0
  1156  002E4A  6FAE               	movwf	(sprintf@f+2)& (0+255),b
  1157                           
  1158                           ; BSR set to: 0
  1159  002E4C  0E00               	movlw	0
  1160  002E4E  6FB1               	movwf	(sprintf@f+5)& (0+255),b
  1161  002E50  0E00               	movlw	0
  1162  002E52  6FB0               	movwf	(sprintf@f+4)& (0+255),b
  1163                           
  1164                           ; BSR set to: 0
  1165  002E54  0EAC               	movlw	low sprintf@f
  1166  002E56  6E4E               	movwf	vfprintf@fp^0,c
  1167  002E58  C09C  F04F         	movff	sprintf@fmt,vfprintf@fmt
  1168  002E5C  0EAB               	movlw	low sprintf@ap
  1169  002E5E  6E50               	movwf	vfprintf@ap^0,c
  1170  002E60  ECD4  F016         	call	_vfprintf	;wreg free
  1171                           
  1172                           ; BSR set to: 0
  1173  002E64  51AE               	movf	(sprintf@f+2)& (0+255),w,b
  1174  002E66  259A               	addwf	sprintf@s& (0+255),w,b
  1175  002E68  6ED9               	movwf	fsr2l,c
  1176  002E6A  51AF               	movf	(sprintf@f+3)& (0+255),w,b
  1177  002E6C  219B               	addwfc	(sprintf@s+1)& (0+255),w,b
  1178  002E6E  6EDA               	movwf	fsr2h,c
  1179  002E70  0E00               	movlw	0
  1180  002E72  6EDF               	movwf	indf2,c
  1181                           
  1182                           ; BSR set to: 0
  1183  002E74  0012               	return		;funcret
  1184  002E76                     __end_of_sprintf:
  1185                           	callstack 0
  1186                           
  1187 ;; *************** function _vfprintf *****************
  1188 ;; Defined at:
  1189 ;;		line 1368 in file "/opt/microchip/xc8/v2.20/pic/sources/c99/common/doprnt.c"
  1190 ;; Parameters:    Size  Location     Type
  1191 ;;  fp              1   77[COMRAM] PTR struct _IO_FILE
  1192 ;;		 -> sprintf@f(6), 
  1193 ;;  fmt             1   78[COMRAM] PTR const unsigned char 
  1194 ;;		 -> STR_3(27), 
  1195 ;;  ap              1   79[COMRAM] PTR PTR void 
  1196 ;;		 -> sprintf@ap(1), 
  1197 ;; Auto vars:     Size  Location     Type
  1198 ;;  cfmt            1   80[COMRAM] PTR unsigned char 
  1199 ;;		 -> STR_3(27), 
  1200 ;; Return value:  Size  Location     Type
  1201 ;;                  2   77[COMRAM] int 
  1202 ;; Registers used:
  1203 ;;		wreg, fsr1l, fsr1h, fsr2l, fsr2h, status,2, status,0, tblptrl, tblptrh, tblptru, cstack
  1204 ;; Tracked objects:
  1205 ;;		On entry : 3F/0
  1206 ;;		On exit  : 3F/0
  1207 ;;		Unchanged: 0/0
  1208 ;; Data sizes:     COMRAM   BANK0   BANK1   BANK2   BANK3   BANK4   BANK5   BANK6   BANK7   BANK8   BANK9  BANK10  BANK1
      +1  BANK12  BANK13  BANK14  BANK15  BANK16  BANK17  BANK18  BANK19  BANK20  BANK21  BANK22  BANK23  BANK24  BANK25  BANK2
      +6  BANK27  BANK28  BANK29  BANK30  BANK31
  1209 ;;      Params:         3       0       0       0       0       0       0       0       0       0       0       0       
      +0       0       0       0       0       0       0       0       0       0       0       0       0       0       0       
      +0       0       0       0       0       0
  1210 ;;      Locals:         1       0       0       0       0       0       0       0       0       0       0       0       
      +0       0       0       0       0       0       0       0       0       0       0       0       0       0       0       
      +0       0       0       0       0       0
  1211 ;;      Temps:          0       0       0       0       0       0       0       0       0       0       0       0       
      +0       0       0       0       0       0       0       0       0       0       0       0       0       0       0       
      +0       0       0       0       0       0
  1212 ;;      Totals:         4       0       0       0       0       0       0       0       0       0       0       0       
      +0       0       0       0       0       0       0       0       0       0       0       0       0       0       0       
      +0       0       0       0       0       0
  1213 ;;Total ram usage:        4 bytes
  1214 ;; Hardware stack levels used:    1
  1215 ;; Hardware stack levels required when called:   10
  1216 ;; This function calls:
  1217 ;;		_vfpfcnvrt
  1218 ;; This function is called by:
  1219 ;;		_sprintf
  1220 ;; This function uses a non-reentrant model
  1221 ;;
  1222                           
  1223                           	psect	text2
  1224  002DA8                     __ptext2:
  1225                           	callstack 0
  1226  002DA8                     _vfprintf:
  1227                           	callstack 19
  1228                           
  1229                           ; BSR set to: 0
  1230                           ;/opt/microchip/xc8/v2.20/pic/sources/c99/common/doprnt.c: 1368: int vfprintf(FILE *fp, 
      +                          const char *fmt, va_list ap);/opt/microchip/xc8/v2.20/pic/sources/c99/common/doprnt.c: 1
      +                          369: {;/opt/microchip/xc8/v2.20/pic/sources/c99/common/doprnt.c: 1371:     char *cfmt;;/
      +                          opt/microchip/xc8/v2.20/pic/sources/c99/common/doprnt.c: 1373:     cfmt = (char *)fmt;
  1231                           
  1232                           ; BSR set to: 0
  1233                           ;incstack = 0
  1234  002DA8  C04F  F051         	movff	vfprintf@fmt,vfprintf@cfmt
  1235                           
  1236                           ; BSR set to: 0
  1237                           ;/opt/microchip/xc8/v2.20/pic/sources/c99/common/doprnt.c: 1374:     nout = 0;
  1238  002DAC  0E00               	movlw	0
  1239  002DAE  6F85               	movwf	(_nout+1)& (0+255),b
  1240  002DB0  0E00               	movlw	0
  1241  002DB2  6F84               	movwf	_nout& (0+255),b
  1242                           
  1243                           ;/opt/microchip/xc8/v2.20/pic/sources/c99/common/doprnt.c: 1375:     while (*cfmt) {
  1244  002DB4  D00D               	goto	l3480
  1245  002DB6                     l3478:
  1246                           
  1247                           ; BSR set to: 0
  1248                           ;/opt/microchip/xc8/v2.20/pic/sources/c99/common/doprnt.c: 1376:         nout += vfpfcnv
      +                          rt(fp, &cfmt, ap);
  1249  002DB6  C04E  F03E         	movff	vfprintf@fp,vfpfcnvrt@fp
  1250  002DBA  0E51               	movlw	low vfprintf@cfmt
  1251  002DBC  6E3F               	movwf	vfpfcnvrt@fmt^0,c
  1252  002DBE  C050  F040         	movff	vfprintf@ap,vfpfcnvrt@ap
  1253  002DC2  EC1D  F010         	call	_vfpfcnvrt	;wreg free
  1254  002DC6  503E               	movf	?_vfpfcnvrt^0,w,c
  1255  002DC8  0100               	movlb	0	; () banked
  1256  002DCA  2784               	addwf	_nout& (0+255),f,b
  1257  002DCC  503F               	movf	(?_vfpfcnvrt+1)^0,w,c
  1258  002DCE  2385               	addwfc	(_nout+1)& (0+255),f,b
  1259  002DD0                     l3480:
  1260                           
  1261                           ; BSR set to: 0
  1262                           ;/opt/microchip/xc8/v2.20/pic/sources/c99/common/doprnt.c: 1375:     while (*cfmt) {
  1263  002DD0  0060  F147  FFF6   	movff	vfprintf@cfmt,tblptrl
  1264  002DD6                     	if	1	;There is more than 1 active tblptr byte
  1265  002DD6  0E20               	movlw	high __smallconst
  1266  002DD8  6EF7               	movwf	tblptrh,c
  1267  002DDA                     	endif
  1268  002DDA                     	if	0	;tblptru may be non-zero
  1269  002DDA                     	endif
  1270  002DDA                     	if	1	;Program memory is > 0xFFFF, there are 3 active tblptr bytes
  1271  002DDA  0E00               	movlw	low (__smallconst shr (0+16))
  1272  002DDC  6EF8               	movwf	tblptru,c
  1273  002DDE                     	endif
  1274  002DDE  0008               	tblrd		*
  1275  002DE0  50F5               	movf	tablat,w,c
  1276  002DE2  0900               	iorlw	0
  1277  002DE4  A4D8               	btfss	status,2,c
  1278  002DE6  D7E7               	goto	l3478
  1279                           
  1280                           ; BSR set to: 0
  1281                           ;/opt/microchip/xc8/v2.20/pic/sources/c99/common/doprnt.c: 1378:     return nout;
  1282  002DE8  C084  F04E         	movff	_nout,?_vfprintf
  1283  002DEC  C085  F04F         	movff	_nout+1,?_vfprintf+1
  1284                           
  1285                           ; BSR set to: 0
  1286  002DF0  0012               	return		;funcret
  1287  002DF2                     __end_of_vfprintf:
  1288                           	callstack 0
  1289                           
  1290 ;; *************** function _vfpfcnvrt *****************
  1291 ;; Defined at:
  1292 ;;		line 670 in file "/opt/microchip/xc8/v2.20/pic/sources/c99/common/doprnt.c"
  1293 ;; Parameters:    Size  Location     Type
  1294 ;;  fp              1   61[COMRAM] PTR struct _IO_FILE
  1295 ;;		 -> sprintf@f(6), 
  1296 ;;  fmt             1   62[COMRAM] PTR PTR unsigned char 
  1297 ;;		 -> vfprintf@cfmt(1), 
  1298 ;;  ap              1   63[COMRAM] PTR PTR void 
  1299 ;;		 -> sprintf@ap(1), 
  1300 ;; Auto vars:     Size  Location     Type
  1301 ;;  llu             8   69[COMRAM] unsigned long long 
  1302 ;;  ll              8    0        long long 
  1303 ;;  f               4    0        long long 
  1304 ;;  vp              3    0        PTR void 
  1305 ;;  ct              3    0        unsigned char [3]
  1306 ;;  cp              3    0        PTR unsigned char 
  1307 ;;  i               2    0        int 
  1308 ;;  done            2    0        int 
  1309 ;;  c               1    0        unsigned char 
  1310 ;; Return value:  Size  Location     Type
  1311 ;;                  2   61[COMRAM] int 
  1312 ;; Registers used:
  1313 ;;		wreg, fsr1l, fsr1h, fsr2l, fsr2h, status,2, status,0, tblptrl, tblptrh, tblptru, cstack
  1314 ;; Tracked objects:
  1315 ;;		On entry : 3F/0
  1316 ;;		On exit  : 0/0
  1317 ;;		Unchanged: 0/0
  1318 ;; Data sizes:     COMRAM   BANK0   BANK1   BANK2   BANK3   BANK4   BANK5   BANK6   BANK7   BANK8   BANK9  BANK10  BANK1
      +1  BANK12  BANK13  BANK14  BANK15  BANK16  BANK17  BANK18  BANK19  BANK20  BANK21  BANK22  BANK23  BANK24  BANK25  BANK2
      +6  BANK27  BANK28  BANK29  BANK30  BANK31
  1319 ;;      Params:         3       0       0       0       0       0       0       0       0       0       0       0       
      +0       0       0       0       0       0       0       0       0       0       0       0       0       0       0       
      +0       0       0       0       0       0
  1320 ;;      Locals:         8       0       0       0       0       0       0       0       0       0       0       0       
      +0       0       0       0       0       0       0       0       0       0       0       0       0       0       0       
      +0       0       0       0       0       0
  1321 ;;      Temps:          5       0       0       0       0       0       0       0       0       0       0       0       
      +0       0       0       0       0       0       0       0       0       0       0       0       0       0       0       
      +0       0       0       0       0       0
  1322 ;;      Totals:        16       0       0       0       0       0       0       0       0       0       0       0       
      +0       0       0       0       0       0       0       0       0       0       0       0       0       0       0       
      +0       0       0       0       0       0
  1323 ;;Total ram usage:       16 bytes
  1324 ;; Hardware stack levels used:    1
  1325 ;; Hardware stack levels required when called:    9
  1326 ;; This function calls:
  1327 ;;		_fputc
  1328 ;;		_strncmp
  1329 ;;		_utoa
  1330 ;; This function is called by:
  1331 ;;		_vfprintf
  1332 ;; This function uses a non-reentrant model
  1333 ;;
  1334                           
  1335                           	psect	text3
  1336  00203A                     __ptext3:
  1337                           	callstack 0
  1338  00203A                     _vfpfcnvrt:
  1339                           	callstack 19
  1340                           
  1341                           ; BSR set to: 0
  1342                           ;/opt/microchip/xc8/v2.20/pic/sources/c99/common/doprnt.c: 670: static int vfpfcnvrt(FIL
      +                          E *fp, char *fmt[], va_list ap);/opt/microchip/xc8/v2.20/pic/sources/c99/common/doprnt.c
      +                          : 671: {;/opt/microchip/xc8/v2.20/pic/sources/c99/common/doprnt.c: 672:     char c, *cp,
      +                           ct[3];;/opt/microchip/xc8/v2.20/pic/sources/c99/common/doprnt.c: 673:     int done, i;;
      +                          /opt/microchip/xc8/v2.20/pic/sources/c99/common/doprnt.c: 674:     long long ll;;/opt/mi
      +                          crochip/xc8/v2.20/pic/sources/c99/common/doprnt.c: 675:     unsigned long long llu;
  1343                           
  1344                           ; BSR set to: 0
  1345                           ;incstack = 0
  1346  00203A  503F               	movf	vfpfcnvrt@fmt^0,w,c
  1347  00203C  6ED9               	movwf	fsr2l,c
  1348  00203E  6ADA               	clrf	fsr2h,c
  1349  002040  006F FF7F FFF6     	movff	indf2,tblptrl
  1350  002046                     	if	1	;There is more than 1 active tblptr byte
  1351  002046  0E20               	movlw	high __smallconst
  1352  002048  6EF7               	movwf	tblptrh,c
  1353  00204A                     	endif
  1354  00204A                     	if	0	;tblptru may be non-zero
  1355  00204A                     	endif
  1356  00204A                     	if	1	;Program memory is > 0xFFFF, there are 3 active tblptr bytes
  1357  00204A  0E00               	movlw	low (__smallconst shr (0+16))
  1358  00204C  6EF8               	movwf	tblptru,c
  1359  00204E                     	endif
  1360  00204E  0008               	tblrd		*
  1361  002050  50F5               	movf	tablat,w,c
  1362  002052  0A25               	xorlw	37
  1363  002054  A4D8               	btfss	status,2,c
  1364  002056  D0B1               	goto	l3278
  1365                           
  1366                           ; BSR set to: 0
  1367                           ;/opt/microchip/xc8/v2.20/pic/sources/c99/common/doprnt.c: 681:         ++*fmt;
  1368  002058  503F               	movf	vfpfcnvrt@fmt^0,w,c
  1369  00205A  6ED9               	movwf	fsr2l,c
  1370  00205C  6ADA               	clrf	fsr2h,c
  1371  00205E  2ADF               	incf	indf2,f,c
  1372                           
  1373                           ; BSR set to: 0
  1374                           ;/opt/microchip/xc8/v2.20/pic/sources/c99/common/doprnt.c: 683:         flags = width = 
      +                          0;
  1375  002060  0E00               	movlw	0
  1376  002062  6F87               	movwf	(_width+1)& (0+255),b
  1377  002064  0E00               	movlw	0
  1378  002066  6F86               	movwf	_width& (0+255),b
  1379  002068  C086  F08A         	movff	_width,_flags
  1380  00206C  C087  F08B         	movff	_width+1,_flags+1
  1381                           
  1382                           ; BSR set to: 0
  1383                           ;/opt/microchip/xc8/v2.20/pic/sources/c99/common/doprnt.c: 684:         prec = -1;
  1384  002070  6988               	setf	_prec& (0+255),b
  1385  002072  6989               	setf	(_prec+1)& (0+255),b
  1386                           
  1387                           ; BSR set to: 0
  1388                           ;/opt/microchip/xc8/v2.20/pic/sources/c99/common/doprnt.c: 1182:         if (*fmt[0] == 
      +                          'u') {
  1389  002074  503F               	movf	vfpfcnvrt@fmt^0,w,c
  1390  002076  6ED9               	movwf	fsr2l,c
  1391  002078  6ADA               	clrf	fsr2h,c
  1392  00207A  006F FF7F FFF6     	movff	indf2,tblptrl
  1393  002080                     	if	1	;There is more than 1 active tblptr byte
  1394  002080  0E20               	movlw	high __smallconst
  1395  002082  6EF7               	movwf	tblptrh,c
  1396  002084                     	endif
  1397  002084                     	if	0	;tblptru may be non-zero
  1398  002084                     	endif
  1399  002084                     	if	1	;Program memory is > 0xFFFF, there are 3 active tblptr bytes
  1400  002084  0E00               	movlw	low (__smallconst shr (0+16))
  1401  002086  6EF8               	movwf	tblptru,c
  1402  002088                     	endif
  1403  002088  0008               	tblrd		*
  1404  00208A  50F5               	movf	tablat,w,c
  1405  00208C  0A75               	xorlw	117
  1406  00208E  A4D8               	btfss	status,2,c
  1407  002090  D035               	goto	l3254
  1408                           
  1409                           ; BSR set to: 0
  1410                           ;/opt/microchip/xc8/v2.20/pic/sources/c99/common/doprnt.c: 1184:             ++*fmt;
  1411  002092  503F               	movf	vfpfcnvrt@fmt^0,w,c
  1412  002094  6ED9               	movwf	fsr2l,c
  1413  002096  6ADA               	clrf	fsr2h,c
  1414  002098  2ADF               	incf	indf2,f,c
  1415                           
  1416                           ; BSR set to: 0
  1417                           ;/opt/microchip/xc8/v2.20/pic/sources/c99/common/doprnt.c: 1185:             llu = (unsi
      +                          gned long long)(*(unsigned int *)__va_arg(*(unsigned int **)ap, (unsigned int)0));
  1418  00209A  5040               	movf	vfpfcnvrt@ap^0,w,c
  1419  00209C  6ED9               	movwf	fsr2l,c
  1420  00209E  6ADA               	clrf	fsr2h,c
  1421  0020A0  50DF               	movf	indf2,w,c
  1422  0020A2  2ADF               	incf	indf2,f,c
  1423  0020A4  2ADF               	incf	indf2,f,c
  1424  0020A6  6ED9               	movwf	fsr2l,c
  1425  0020A8  6ADA               	clrf	fsr2h,c
  1426  0020AA  006F FF78  F041    	movff	postinc2,??_vfpfcnvrt
  1427  0020B0  006F FF74  F042    	movff	postdec2,??_vfpfcnvrt+1
  1428  0020B6  C041  F046         	movff	??_vfpfcnvrt,vfpfcnvrt@llu
  1429  0020BA  C042  F047         	movff	??_vfpfcnvrt+1,vfpfcnvrt@llu+1
  1430  0020BE  6A48               	clrf	(vfpfcnvrt@llu+2)^0,c
  1431  0020C0  6A49               	clrf	(vfpfcnvrt@llu+3)^0,c
  1432  0020C2  6A4A               	clrf	(vfpfcnvrt@llu+4)^0,c
  1433  0020C4  6A4B               	clrf	(vfpfcnvrt@llu+5)^0,c
  1434  0020C6  6A4C               	clrf	(vfpfcnvrt@llu+6)^0,c
  1435  0020C8  6A4D               	clrf	(vfpfcnvrt@llu+7)^0,c
  1436                           
  1437                           ; BSR set to: 0
  1438                           ;/opt/microchip/xc8/v2.20/pic/sources/c99/common/doprnt.c: 1187:             return utoa
      +                          (fp, llu);
  1439  0020CA  C03E  F01F         	movff	vfpfcnvrt@fp,utoa@fp
  1440  0020CE  C046  F020         	movff	vfpfcnvrt@llu,utoa@d
  1441  0020D2  C047  F021         	movff	vfpfcnvrt@llu+1,utoa@d+1
  1442  0020D6  C048  F022         	movff	vfpfcnvrt@llu+2,utoa@d+2
  1443  0020DA  C049  F023         	movff	vfpfcnvrt@llu+3,utoa@d+3
  1444  0020DE  C04A  F024         	movff	vfpfcnvrt@llu+4,utoa@d+4
  1445  0020E2  C04B  F025         	movff	vfpfcnvrt@llu+5,utoa@d+5
  1446  0020E6  C04C  F026         	movff	vfpfcnvrt@llu+6,utoa@d+6
  1447  0020EA  C04D  F027         	movff	vfpfcnvrt@llu+7,utoa@d+7
  1448  0020EE  ECF4  F010         	call	_utoa	;wreg free
  1449  0020F2  C01F  F03E         	movff	?_utoa,?_vfpfcnvrt
  1450  0020F6  C020  F03F         	movff	?_utoa+1,?_vfpfcnvrt+1
  1451  0020FA  0012               	return	
  1452  0020FC                     l3254:
  1453                           
  1454                           ; BSR set to: 0
  1455                           ;/opt/microchip/xc8/v2.20/pic/sources/c99/common/doprnt.c: 1192:         if (!strncmp(*f
      +                          mt, "lu", ((sizeof("lu")/sizeof("lu"[0]))-1))) {
  1456  0020FC  503F               	movf	vfpfcnvrt@fmt^0,w,c
  1457  0020FE  6ED9               	movwf	fsr2l,c
  1458  002100  6ADA               	clrf	fsr2h,c
  1459  002102  50DF               	movf	indf2,w,c
  1460  002104  6E06               	movwf	strncmp@_l^0,c
  1461  002106  0E36               	movlw	low STR_4
  1462  002108  6E07               	movwf	strncmp@_r^0,c
  1463  00210A  0E00               	movlw	0
  1464  00210C  6E09               	movwf	(strncmp@n+1)^0,c
  1465  00210E  0E02               	movlw	2
  1466  002110  6E08               	movwf	strncmp@n^0,c
  1467  002112  EC1D  F013         	call	_strncmp	;wreg free
  1468  002116  5006               	movf	?_strncmp^0,w,c
  1469  002118  1007               	iorwf	(?_strncmp+1)^0,w,c
  1470  00211A  A4D8               	btfss	status,2,c
  1471  00211C  D025               	goto	l3262
  1472                           
  1473                           ; BSR set to: 0
  1474                           ;/opt/microchip/xc8/v2.20/pic/sources/c99/common/doprnt.c: 1194:             *fmt += ((s
      +                          izeof("lu")/sizeof("lu"[0]))-1);
  1475  00211E  503F               	movf	vfpfcnvrt@fmt^0,w,c
  1476  002120  6ED9               	movwf	fsr2l,c
  1477  002122  6ADA               	clrf	fsr2h,c
  1478  002124  0E02               	movlw	2
  1479  002126  26DF               	addwf	indf2,f,c
  1480                           
  1481                           ;/opt/microchip/xc8/v2.20/pic/sources/c99/common/doprnt.c: 1195:             llu = (unsi
      +                          gned long long)(*(unsigned long *)__va_arg(*(unsigned long **)ap, (unsigned long)0));
  1482  002128  5040               	movf	vfpfcnvrt@ap^0,w,c
  1483  00212A  6ED9               	movwf	fsr2l,c
  1484  00212C  6ADA               	clrf	fsr2h,c
  1485  00212E  006F FF7C  F041    	movff	indf2,??_vfpfcnvrt
  1486  002134  0E04               	movlw	4
  1487  002136  26DF               	addwf	indf2,f,c
  1488  002138  5041               	movf	??_vfpfcnvrt^0,w,c
  1489  00213A  6ED9               	movwf	fsr2l,c
  1490  00213C  6ADA               	clrf	fsr2h,c
  1491  00213E  006F FF78  F042    	movff	postinc2,??_vfpfcnvrt+1
  1492  002144  006F FF78  F043    	movff	postinc2,??_vfpfcnvrt+2
  1493  00214A  006F FF78  F044    	movff	postinc2,??_vfpfcnvrt+3
  1494  002150  006F FF78  F045    	movff	postinc2,??_vfpfcnvrt+4
  1495  002156  5042               	movf	(??_vfpfcnvrt+1)^0,w,c
  1496  002158  6E46               	movwf	vfpfcnvrt@llu^0,c
  1497  00215A  5043               	movf	(??_vfpfcnvrt+2)^0,w,c
  1498  00215C  6E47               	movwf	(vfpfcnvrt@llu+1)^0,c
  1499  00215E  5044               	movf	(??_vfpfcnvrt+3)^0,w,c
  1500  002160  6E48               	movwf	(vfpfcnvrt@llu+2)^0,c
  1501  002162  5045               	movf	(??_vfpfcnvrt+4)^0,w,c
  1502  002164  6E49               	movwf	(vfpfcnvrt@llu+3)^0,c
  1503  002166  D7AD               	goto	L1
  1504  002168                     l3262:
  1505                           
  1506                           ; BSR set to: 0
  1507                           ;/opt/microchip/xc8/v2.20/pic/sources/c99/common/doprnt.c: 1350:         if ((*fmt)[0] =
      +                          = '%') {
  1508  002168  503F               	movf	vfpfcnvrt@fmt^0,w,c
  1509  00216A  6ED9               	movwf	fsr2l,c
  1510  00216C  6ADA               	clrf	fsr2h,c
  1511  00216E  006F FF7F FFF6     	movff	indf2,tblptrl
  1512  002174                     	if	1	;There is more than 1 active tblptr byte
  1513  002174  0E20               	movlw	high __smallconst
  1514  002176  6EF7               	movwf	tblptrh,c
  1515  002178                     	endif
  1516  002178                     	if	0	;tblptru may be non-zero
  1517  002178                     	endif
  1518  002178                     	if	1	;Program memory is > 0xFFFF, there are 3 active tblptr bytes
  1519  002178  0E00               	movlw	low (__smallconst shr (0+16))
  1520  00217A  6EF8               	movwf	tblptru,c
  1521  00217C                     	endif
  1522  00217C  0008               	tblrd		*
  1523  00217E  50F5               	movf	tablat,w,c
  1524  002180  0A25               	xorlw	37
  1525  002182  A4D8               	btfss	status,2,c
  1526  002184  D011               	goto	l3272
  1527                           
  1528                           ; BSR set to: 0
  1529                           ;/opt/microchip/xc8/v2.20/pic/sources/c99/common/doprnt.c: 1351:             ++*fmt;
  1530  002186  503F               	movf	vfpfcnvrt@fmt^0,w,c
  1531  002188  6ED9               	movwf	fsr2l,c
  1532  00218A  6ADA               	clrf	fsr2h,c
  1533  00218C  2ADF               	incf	indf2,f,c
  1534                           
  1535                           ; BSR set to: 0
  1536                           ;/opt/microchip/xc8/v2.20/pic/sources/c99/common/doprnt.c: 1352:             fputc((int)
      +                          '%', fp);
  1537  00218E  0E00               	movlw	0
  1538  002190  6E07               	movwf	(fputc@c+1)^0,c
  1539  002192  0E25               	movlw	37
  1540  002194  6E06               	movwf	fputc@c^0,c
  1541  002196  C03E  F008         	movff	vfpfcnvrt@fp,fputc@fp
  1542  00219A  EC79  F015         	call	_fputc	;wreg free
  1543  00219E                     l3268:
  1544                           
  1545                           ;/opt/microchip/xc8/v2.20/pic/sources/c99/common/doprnt.c: 1353:             return 1;
  1546  00219E  0E00               	movlw	0
  1547  0021A0  6E3F               	movwf	(?_vfpfcnvrt+1)^0,c
  1548  0021A2  0E01               	movlw	1
  1549  0021A4  6E3E               	movwf	?_vfpfcnvrt^0,c
  1550  0021A6  0012               	return	
  1551  0021A8                     l3272:
  1552                           
  1553                           ; BSR set to: 0
  1554                           ;/opt/microchip/xc8/v2.20/pic/sources/c99/common/doprnt.c: 1357:         ++*fmt;
  1555  0021A8  503F               	movf	vfpfcnvrt@fmt^0,w,c
  1556  0021AA  6ED9               	movwf	fsr2l,c
  1557  0021AC  6ADA               	clrf	fsr2h,c
  1558  0021AE  2ADF               	incf	indf2,f,c
  1559                           
  1560                           ; BSR set to: 0
  1561                           ;/opt/microchip/xc8/v2.20/pic/sources/c99/common/doprnt.c: 1358:         return 0;
  1562  0021B0  0E00               	movlw	0
  1563  0021B2  6E3F               	movwf	(?_vfpfcnvrt+1)^0,c
  1564  0021B4  0E00               	movlw	0
  1565  0021B6  6E3E               	movwf	?_vfpfcnvrt^0,c
  1566  0021B8  0012               	return	
  1567  0021BA                     l3278:
  1568                           
  1569                           ; BSR set to: 0
  1570                           ;/opt/microchip/xc8/v2.20/pic/sources/c99/common/doprnt.c: 1362:     fputc((int)(*fmt)[0
      +                          ], fp);
  1571  0021BA  503F               	movf	vfpfcnvrt@fmt^0,w,c
  1572  0021BC  6ED9               	movwf	fsr2l,c
  1573  0021BE  6ADA               	clrf	fsr2h,c
  1574  0021C0  006F FF7F FFF6     	movff	indf2,tblptrl
  1575  0021C6                     	if	1	;There is more than 1 active tblptr byte
  1576  0021C6  0E20               	movlw	high __smallconst
  1577  0021C8  6EF7               	movwf	tblptrh,c
  1578  0021CA                     	endif
  1579  0021CA                     	if	0	;tblptru may be non-zero
  1580  0021CA                     	endif
  1581  0021CA                     	if	1	;Program memory is > 0xFFFF, there are 3 active tblptr bytes
  1582  0021CA  0E00               	movlw	low (__smallconst shr (0+16))
  1583  0021CC  6EF8               	movwf	tblptru,c
  1584  0021CE                     	endif
  1585  0021CE  0008               	tblrd		*
  1586  0021D0  50F5               	movf	tablat,w,c
  1587  0021D2  6E06               	movwf	fputc@c^0,c
  1588  0021D4  6A07               	clrf	(fputc@c+1)^0,c
  1589  0021D6  C03E  F008         	movff	vfpfcnvrt@fp,fputc@fp
  1590  0021DA  EC79  F015         	call	_fputc	;wreg free
  1591                           
  1592                           ;/opt/microchip/xc8/v2.20/pic/sources/c99/common/doprnt.c: 1363:     ++*fmt;
  1593  0021DE  503F               	movf	vfpfcnvrt@fmt^0,w,c
  1594  0021E0  6ED9               	movwf	fsr2l,c
  1595  0021E2  6ADA               	clrf	fsr2h,c
  1596  0021E4  2ADF               	incf	indf2,f,c
  1597  0021E6  D7DB               	goto	l3268
  1598  0021E8                     __end_of_vfpfcnvrt:
  1599                           	callstack 0
  1600                           
  1601 ;; *************** function _utoa *****************
  1602 ;; Defined at:
  1603 ;;		line 593 in file "/opt/microchip/xc8/v2.20/pic/sources/c99/common/doprnt.c"
  1604 ;; Parameters:    Size  Location     Type
  1605 ;;  fp              1   30[COMRAM] PTR struct _IO_FILE
  1606 ;;		 -> sprintf@f(6), 
  1607 ;;  d               8   31[COMRAM] unsigned long long 
  1608 ;; Auto vars:     Size  Location     Type
  1609 ;;  n               8   51[COMRAM] unsigned long long 
  1610 ;;  i               2   59[COMRAM] int 
  1611 ;;  w               2   49[COMRAM] int 
  1612 ;;  p               2   47[COMRAM] int 
  1613 ;; Return value:  Size  Location     Type
  1614 ;;                  2   30[COMRAM] int 
  1615 ;; Registers used:
  1616 ;;		wreg, fsr1l, fsr1h, fsr2l, fsr2h, status,2, status,0, cstack
  1617 ;; Tracked objects:
  1618 ;;		On entry : 3F/0
  1619 ;;		On exit  : 0/0
  1620 ;;		Unchanged: 0/0
  1621 ;; Data sizes:     COMRAM   BANK0   BANK1   BANK2   BANK3   BANK4   BANK5   BANK6   BANK7   BANK8   BANK9  BANK10  BANK1
      +1  BANK12  BANK13  BANK14  BANK15  BANK16  BANK17  BANK18  BANK19  BANK20  BANK21  BANK22  BANK23  BANK24  BANK25  BANK2
      +6  BANK27  BANK28  BANK29  BANK30  BANK31
  1622 ;;      Params:         9       0       0       0       0       0       0       0       0       0       0       0       
      +0       0       0       0       0       0       0       0       0       0       0       0       0       0       0       
      +0       0       0       0       0       0
  1623 ;;      Locals:        14       0       0       0       0       0       0       0       0       0       0       0       
      +0       0       0       0       0       0       0       0       0       0       0       0       0       0       0       
      +0       0       0       0       0       0
  1624 ;;      Temps:          8       0       0       0       0       0       0       0       0       0       0       0       
      +0       0       0       0       0       0       0       0       0       0       0       0       0       0       0       
      +0       0       0       0       0       0
  1625 ;;      Totals:        31       0       0       0       0       0       0       0       0       0       0       0       
      +0       0       0       0       0       0       0       0       0       0       0       0       0       0       0       
      +0       0       0       0       0       0
  1626 ;;Total ram usage:       31 bytes
  1627 ;; Hardware stack levels used:    1
  1628 ;; Hardware stack levels required when called:    8
  1629 ;; This function calls:
  1630 ;;		___lodiv
  1631 ;;		___lomod
  1632 ;;		_pad
  1633 ;; This function is called by:
  1634 ;;		_vfpfcnvrt
  1635 ;; This function uses a non-reentrant model
  1636 ;;
  1637                           
  1638                           	psect	text4
  1639  0021E8                     __ptext4:
  1640                           	callstack 0
  1641  0021E8                     _utoa:
  1642                           	callstack 19
  1643                           
  1644                           ; BSR set to: 0
  1645                           ;/opt/microchip/xc8/v2.20/pic/sources/c99/common/doprnt.c: 593: static int utoa(FILE *fp
      +                          , unsigned long long d);/opt/microchip/xc8/v2.20/pic/sources/c99/common/doprnt.c: 594: {
      +                          ;/opt/microchip/xc8/v2.20/pic/sources/c99/common/doprnt.c: 595:     int i, p, w;;/opt/mi
      +                          crochip/xc8/v2.20/pic/sources/c99/common/doprnt.c: 596:     unsigned long long n;;/opt/m
      +                          icrochip/xc8/v2.20/pic/sources/c99/common/doprnt.c: 599:     if (!(prec < 0)) {
  1646                           
  1647                           ;incstack = 0
  1648  0021E8  AF89               	btfss	(_prec+1)& (0+255),7,b
  1649                           
  1650                           ; BSR set to: 0
  1651                           ;/opt/microchip/xc8/v2.20/pic/sources/c99/common/doprnt.c: 600:         flags &= ~(1 << 
      +                          1);
  1652  0021EA  938A               	bcf	_flags& (0+255),1,b
  1653                           
  1654                           ; BSR set to: 0
  1655                           ;/opt/microchip/xc8/v2.20/pic/sources/c99/common/doprnt.c: 602:     p = (0 < prec) ? pre
      +                          c : 1;
  1656  0021EC  BF89               	btfsc	(_prec+1)& (0+255),7,b
  1657  0021EE  D005               	goto	u1850
  1658  0021F0  5189               	movf	(_prec+1)& (0+255),w,b
  1659  0021F2  E108               	bnz	l1673
  1660  0021F4  0588               	decf	_prec& (0+255),w,b
  1661  0021F6  B0D8               	btfsc	status,0,c
  1662  0021F8  D005               	goto	l1673
  1663  0021FA                     u1850:
  1664                           
  1665                           ; BSR set to: 0
  1666  0021FA  0E00               	movlw	0
  1667  0021FC  6E31               	movwf	(utoa@p+1)^0,c
  1668  0021FE  0E01               	movlw	1
  1669  002200  6E30               	movwf	utoa@p^0,c
  1670  002202  D004               	goto	l1675
  1671  002204                     l1673:
  1672                           
  1673                           ; BSR set to: 0
  1674  002204  C088  F030         	movff	_prec,utoa@p
  1675  002208  C089  F031         	movff	_prec+1,utoa@p+1
  1676  00220C                     l1675:
  1677                           
  1678                           ; BSR set to: 0
  1679                           ;/opt/microchip/xc8/v2.20/pic/sources/c99/common/doprnt.c: 603:     w = width;
  1680  00220C  C086  F032         	movff	_width,utoa@w
  1681  002210  C087  F033         	movff	_width+1,utoa@w+1
  1682                           
  1683                           ;/opt/microchip/xc8/v2.20/pic/sources/c99/common/doprnt.c: 606:     n = d;
  1684  002214  C020  F034         	movff	utoa@d,utoa@n
  1685  002218  C021  F035         	movff	utoa@d+1,utoa@n+1
  1686  00221C  C022  F036         	movff	utoa@d+2,utoa@n+2
  1687  002220  C023  F037         	movff	utoa@d+3,utoa@n+3
  1688  002224  C024  F038         	movff	utoa@d+4,utoa@n+4
  1689  002228  C025  F039         	movff	utoa@d+5,utoa@n+5
  1690  00222C  C026  F03A         	movff	utoa@d+6,utoa@n+6
  1691  002230  C027  F03B         	movff	utoa@d+7,utoa@n+7
  1692                           
  1693                           ; BSR set to: 0
  1694                           ;/opt/microchip/xc8/v2.20/pic/sources/c99/common/doprnt.c: 607:     i = sizeof(dbuf) - 1
      +                          ;
  1695  002234  0E00               	movlw	0
  1696  002236  6E3D               	movwf	(utoa@i+1)^0,c
  1697  002238  0E1F               	movlw	31
  1698  00223A  6E3C               	movwf	utoa@i^0,c
  1699                           
  1700                           ; BSR set to: 0
  1701                           ;/opt/microchip/xc8/v2.20/pic/sources/c99/common/doprnt.c: 608:     dbuf[i] = '\0';
  1702  00223C  0E00               	movlw	0
  1703  00223E  0101               	movlb	1	; () banked
  1704  002240  6FF5               	movwf	(_dbuf+31)& (0+255),b
  1705                           
  1706                           ;/opt/microchip/xc8/v2.20/pic/sources/c99/common/doprnt.c: 609:     while (i && (n || (0
      +                           < p) || ((0 < w) && (flags & (1 << 1))))) {
  1707  002242  D076               	goto	l3178
  1708  002244                     l3168:
  1709                           
  1710                           ;/opt/microchip/xc8/v2.20/pic/sources/c99/common/doprnt.c: 610:         --i;
  1711  002244  063C               	decf	utoa@i^0,f,c
  1712  002246  A0D8               	btfss	status,0,c
  1713  002248  063D               	decf	(utoa@i+1)^0,f,c
  1714                           
  1715                           ;/opt/microchip/xc8/v2.20/pic/sources/c99/common/doprnt.c: 611:         dbuf[i] = '0' + 
      +                          (n % 10);
  1716  00224A  0ED6               	movlw	low _dbuf
  1717  00224C  243C               	addwf	utoa@i^0,w,c
  1718  00224E  6ED9               	movwf	fsr2l,c
  1719  002250  0E01               	movlw	high _dbuf
  1720  002252  203D               	addwfc	(utoa@i+1)^0,w,c
  1721  002254  6EDA               	movwf	fsr2h,c
  1722  002256  C034  F006         	movff	utoa@n,___lomod@dividend
  1723  00225A  C035  F007         	movff	utoa@n+1,___lomod@dividend+1
  1724  00225E  C036  F008         	movff	utoa@n+2,___lomod@dividend+2
  1725  002262  C037  F009         	movff	utoa@n+3,___lomod@dividend+3
  1726  002266  C038  F00A         	movff	utoa@n+4,___lomod@dividend+4
  1727  00226A  C039  F00B         	movff	utoa@n+5,___lomod@dividend+5
  1728  00226E  C03A  F00C         	movff	utoa@n+6,___lomod@dividend+6
  1729  002272  C03B  F00D         	movff	utoa@n+7,___lomod@dividend+7
  1730  002276  0E0A               	movlw	10
  1731  002278  6E0E               	movwf	___lomod@divisor^0,c
  1732  00227A  0E00               	movlw	0
  1733  00227C  6E0F               	movwf	(___lomod@divisor+1)^0,c
  1734  00227E  0E00               	movlw	0
  1735  002280  6E10               	movwf	(___lomod@divisor+2)^0,c
  1736  002282  0E00               	movlw	0
  1737  002284  6E11               	movwf	(___lomod@divisor+3)^0,c
  1738  002286  0E00               	movlw	0
  1739  002288  6E12               	movwf	(___lomod@divisor+4)^0,c
  1740  00228A  0E00               	movlw	0
  1741  00228C  6E13               	movwf	(___lomod@divisor+5)^0,c
  1742  00228E  0E00               	movlw	0
  1743  002290  6E14               	movwf	(___lomod@divisor+6)^0,c
  1744  002292  0E00               	movlw	0
  1745  002294  6E15               	movwf	(___lomod@divisor+7)^0,c
  1746  002296  ECDB  F013         	call	___lomod	;wreg free
  1747  00229A  C006  F028         	movff	?___lomod,??_utoa
  1748  00229E  C007  F029         	movff	?___lomod+1,??_utoa+1
  1749  0022A2  C008  F02A         	movff	?___lomod+2,??_utoa+2
  1750  0022A6  C009  F02B         	movff	?___lomod+3,??_utoa+3
  1751  0022AA  C00A  F02C         	movff	?___lomod+4,??_utoa+4
  1752  0022AE  C00B  F02D         	movff	?___lomod+5,??_utoa+5
  1753  0022B2  C00C  F02E         	movff	?___lomod+6,??_utoa+6
  1754  0022B6  C00D  F02F         	movff	?___lomod+7,??_utoa+7
  1755  0022BA  5028               	movf	??_utoa^0,w,c
  1756  0022BC  0F30               	addlw	48
  1757  0022BE  6EDF               	movwf	indf2,c
  1758                           
  1759                           ;/opt/microchip/xc8/v2.20/pic/sources/c99/common/doprnt.c: 612:         --p;
  1760  0022C0  0630               	decf	utoa@p^0,f,c
  1761  0022C2  A0D8               	btfss	status,0,c
  1762  0022C4  0631               	decf	(utoa@p+1)^0,f,c
  1763                           
  1764                           ;/opt/microchip/xc8/v2.20/pic/sources/c99/common/doprnt.c: 613:         --w;
  1765  0022C6  0632               	decf	utoa@w^0,f,c
  1766  0022C8  A0D8               	btfss	status,0,c
  1767  0022CA  0633               	decf	(utoa@w+1)^0,f,c
  1768                           
  1769                           ;/opt/microchip/xc8/v2.20/pic/sources/c99/common/doprnt.c: 614:         n = n / 10;
  1770  0022CC  C034  F006         	movff	utoa@n,___lodiv@dividend
  1771  0022D0  C035  F007         	movff	utoa@n+1,___lodiv@dividend+1
  1772  0022D4  C036  F008         	movff	utoa@n+2,___lodiv@dividend+2
  1773  0022D8  C037  F009         	movff	utoa@n+3,___lodiv@dividend+3
  1774  0022DC  C038  F00A         	movff	utoa@n+4,___lodiv@dividend+4
  1775  0022E0  C039  F00B         	movff	utoa@n+5,___lodiv@dividend+5
  1776  0022E4  C03A  F00C         	movff	utoa@n+6,___lodiv@dividend+6
  1777  0022E8  C03B  F00D         	movff	utoa@n+7,___lodiv@dividend+7
  1778  0022EC  0E0A               	movlw	10
  1779  0022EE  6E0E               	movwf	___lodiv@divisor^0,c
  1780  0022F0  0E00               	movlw	0
  1781  0022F2  6E0F               	movwf	(___lodiv@divisor+1)^0,c
  1782  0022F4  0E00               	movlw	0
  1783  0022F6  6E10               	movwf	(___lodiv@divisor+2)^0,c
  1784  0022F8  0E00               	movlw	0
  1785  0022FA  6E11               	movwf	(___lodiv@divisor+3)^0,c
  1786  0022FC  0E00               	movlw	0
  1787  0022FE  6E12               	movwf	(___lodiv@divisor+4)^0,c
  1788  002300  0E00               	movlw	0
  1789  002302  6E13               	movwf	(___lodiv@divisor+5)^0,c
  1790  002304  0E00               	movlw	0
  1791  002306  6E14               	movwf	(___lodiv@divisor+6)^0,c
  1792  002308  0E00               	movlw	0
  1793  00230A  6E15               	movwf	(___lodiv@divisor+7)^0,c
  1794  00230C  EC4F  F012         	call	___lodiv	;wreg free
  1795  002310  C006  F034         	movff	?___lodiv,utoa@n
  1796  002314  C007  F035         	movff	?___lodiv+1,utoa@n+1
  1797  002318  C008  F036         	movff	?___lodiv+2,utoa@n+2
  1798  00231C  C009  F037         	movff	?___lodiv+3,utoa@n+3
  1799  002320  C00A  F038         	movff	?___lodiv+4,utoa@n+4
  1800  002324  C00B  F039         	movff	?___lodiv+5,utoa@n+5
  1801  002328  C00C  F03A         	movff	?___lodiv+6,utoa@n+6
  1802  00232C  C00D  F03B         	movff	?___lodiv+7,utoa@n+7
  1803  002330                     l3178:
  1804                           
  1805                           ;/opt/microchip/xc8/v2.20/pic/sources/c99/common/doprnt.c: 609:     while (i && (n || (0
      +                           < p) || ((0 < w) && (flags & (1 << 1))))) {
  1806  002330  503C               	movf	utoa@i^0,w,c
  1807  002332  103D               	iorwf	(utoa@i+1)^0,w,c
  1808  002334  B4D8               	btfsc	status,2,c
  1809  002336  D01B               	goto	u1900
  1810  002338  5034               	movf	utoa@n^0,w,c
  1811  00233A  1035               	iorwf	(utoa@n+1)^0,w,c
  1812  00233C  1036               	iorwf	(utoa@n+2)^0,w,c
  1813  00233E  1037               	iorwf	(utoa@n+3)^0,w,c
  1814  002340  1038               	iorwf	(utoa@n+4)^0,w,c
  1815  002342  1039               	iorwf	(utoa@n+5)^0,w,c
  1816  002344  103A               	iorwf	(utoa@n+6)^0,w,c
  1817  002346  103B               	iorwf	(utoa@n+7)^0,w,c
  1818  002348  A4D8               	btfss	status,2,c
  1819  00234A  D77C               	goto	l3168
  1820  00234C  BE31               	btfsc	(utoa@p+1)^0,7,c
  1821  00234E  D005               	goto	u1880
  1822  002350  5031               	movf	(utoa@p+1)^0,w,c
  1823  002352  E102               	bnz	u1881
  1824  002354  0430               	decf	utoa@p^0,w,c
  1825  002356  B0D8               	btfsc	status,0,c
  1826  002358                     u1881:
  1827  002358  D775               	goto	l3168
  1828  00235A                     u1880:
  1829  00235A  BE33               	btfsc	(utoa@w+1)^0,7,c
  1830  00235C  D008               	goto	u1900
  1831  00235E  5033               	movf	(utoa@w+1)^0,w,c
  1832  002360  E103               	bnz	u1890
  1833  002362  0432               	decf	utoa@w^0,w,c
  1834  002364  A0D8               	btfss	status,0,c
  1835  002366  D003               	goto	u1900
  1836  002368                     u1890:
  1837  002368  0100               	movlb	0	; () banked
  1838  00236A  B38A               	btfsc	_flags& (0+255),1,b
  1839  00236C  D76B               	goto	l3168
  1840  00236E                     u1900:
  1841                           
  1842                           ;/opt/microchip/xc8/v2.20/pic/sources/c99/common/doprnt.c: 618:     return pad(fp, &dbuf
      +                          [i], w);
  1843  00236E  C01F  F014         	movff	utoa@fp,pad@fp
  1844  002372  0ED6               	movlw	low _dbuf
  1845  002374  243C               	addwf	utoa@i^0,w,c
  1846  002376  6E15               	movwf	pad@buf^0,c
  1847  002378  0E01               	movlw	high _dbuf
  1848  00237A  203D               	addwfc	(utoa@i+1)^0,w,c
  1849  00237C  6E16               	movwf	(pad@buf+1)^0,c
  1850  00237E  C032  F017         	movff	utoa@w,pad@p
  1851  002382  C033  F018         	movff	utoa@w+1,pad@p+1
  1852  002386  ECC6  F015         	call	_pad	;wreg free
  1853  00238A  C014  F01F         	movff	?_pad,?_utoa
  1854  00238E  C015  F020         	movff	?_pad+1,?_utoa+1
  1855  002392  0012               	return		;funcret
  1856  002394                     __end_of_utoa:
  1857                           	callstack 0
  1858                           
  1859 ;; *************** function _pad *****************
  1860 ;; Defined at:
  1861 ;;		line 72 in file "/opt/microchip/xc8/v2.20/pic/sources/c99/common/doprnt.c"
  1862 ;; Parameters:    Size  Location     Type
  1863 ;;  fp              1   19[COMRAM] PTR struct _IO_FILE
  1864 ;;		 -> sprintf@f(6), 
  1865 ;;  buf             2   20[COMRAM] PTR unsigned char 
  1866 ;;		 -> dbuf(32), 
  1867 ;;  p               2   22[COMRAM] int 
  1868 ;; Auto vars:     Size  Location     Type
  1869 ;;  w               2   27[COMRAM] int 
  1870 ;;  i               2   25[COMRAM] int 
  1871 ;; Return value:  Size  Location     Type
  1872 ;;                  2   19[COMRAM] int 
  1873 ;; Registers used:
  1874 ;;		wreg, fsr1l, fsr1h, fsr2l, fsr2h, status,2, status,0, cstack
  1875 ;; Tracked objects:
  1876 ;;		On entry : 0/1
  1877 ;;		On exit  : 0/0
  1878 ;;		Unchanged: 0/0
  1879 ;; Data sizes:     COMRAM   BANK0   BANK1   BANK2   BANK3   BANK4   BANK5   BANK6   BANK7   BANK8   BANK9  BANK10  BANK1
      +1  BANK12  BANK13  BANK14  BANK15  BANK16  BANK17  BANK18  BANK19  BANK20  BANK21  BANK22  BANK23  BANK24  BANK25  BANK2
      +6  BANK27  BANK28  BANK29  BANK30  BANK31
  1880 ;;      Params:         5       0       0       0       0       0       0       0       0       0       0       0       
      +0       0       0       0       0       0       0       0       0       0       0       0       0       0       0       
      +0       0       0       0       0       0
  1881 ;;      Locals:         4       0       0       0       0       0       0       0       0       0       0       0       
      +0       0       0       0       0       0       0       0       0       0       0       0       0       0       0       
      +0       0       0       0       0       0
  1882 ;;      Temps:          1       0       0       0       0       0       0       0       0       0       0       0       
      +0       0       0       0       0       0       0       0       0       0       0       0       0       0       0       
      +0       0       0       0       0       0
  1883 ;;      Totals:        10       0       0       0       0       0       0       0       0       0       0       0       
      +0       0       0       0       0       0       0       0       0       0       0       0       0       0       0       
      +0       0       0       0       0       0
  1884 ;;Total ram usage:       10 bytes
  1885 ;; Hardware stack levels used:    1
  1886 ;; Hardware stack levels required when called:    7
  1887 ;; This function calls:
  1888 ;;		_fputc
  1889 ;;		_fputs
  1890 ;;		_strlen
  1891 ;; This function is called by:
  1892 ;;		_utoa
  1893 ;; This function uses a non-reentrant model
  1894 ;;
  1895                           
  1896                           	psect	text5
  1897  002B8C                     __ptext5:
  1898                           	callstack 0
  1899  002B8C                     _pad:
  1900                           	callstack 19
  1901                           
  1902                           ;/opt/microchip/xc8/v2.20/pic/sources/c99/common/doprnt.c: 72: static int pad(FILE *fp, 
      +                          char *buf, int p);/opt/microchip/xc8/v2.20/pic/sources/c99/common/doprnt.c: 73: {;/opt/m
      +                          icrochip/xc8/v2.20/pic/sources/c99/common/doprnt.c: 74:     int i, w;;/opt/microchip/xc8
      +                          /v2.20/pic/sources/c99/common/doprnt.c: 77:     if (flags & (1 << 0)) {
  1903                           
  1904                           ;incstack = 0
  1905  002B8C  0100               	movlb	0	; () banked
  1906  002B8E  A18A               	btfss	_flags& (0+255),0,b
  1907  002B90  D008               	goto	l3138
  1908                           
  1909                           ; BSR set to: 0
  1910                           ;/opt/microchip/xc8/v2.20/pic/sources/c99/common/doprnt.c: 78:         fputs((const char
      +                           *)buf, fp);
  1911  002B92  C015  F00E         	movff	pad@buf,fputs@s
  1912  002B96  C016  F00F         	movff	pad@buf+1,fputs@s+1
  1913  002B9A  C014  F010         	movff	pad@fp,fputs@fp
  1914  002B9E  EC5A  F017         	call	_fputs	;wreg free
  1915  002BA2                     l3138:
  1916                           
  1917                           ;/opt/microchip/xc8/v2.20/pic/sources/c99/common/doprnt.c: 82:     w = (p < 0) ? 0 : p;
  1918  002BA2  BE18               	btfsc	(pad@p+1)^0,7,c
  1919  002BA4  D005               	goto	l3142
  1920  002BA6  C017  F01C         	movff	pad@p,pad@w
  1921  002BAA  C018  F01D         	movff	pad@p+1,pad@w+1
  1922  002BAE  D004               	goto	l1663
  1923  002BB0                     l3142:
  1924  002BB0  0E00               	movlw	0
  1925  002BB2  6E1D               	movwf	(pad@w+1)^0,c
  1926  002BB4  0E00               	movlw	0
  1927  002BB6  6E1C               	movwf	pad@w^0,c
  1928  002BB8                     l1663:
  1929                           
  1930                           ;/opt/microchip/xc8/v2.20/pic/sources/c99/common/doprnt.c: 83:     i = 0;
  1931  002BB8  0E00               	movlw	0
  1932  002BBA  6E1B               	movwf	(pad@i+1)^0,c
  1933  002BBC  0E00               	movlw	0
  1934  002BBE  6E1A               	movwf	pad@i^0,c
  1935                           
  1936                           ;/opt/microchip/xc8/v2.20/pic/sources/c99/common/doprnt.c: 84:     while (i < w) {
  1937  002BC0  D00A               	goto	l3148
  1938  002BC2                     l3144:
  1939                           
  1940                           ;/opt/microchip/xc8/v2.20/pic/sources/c99/common/doprnt.c: 85:         fputc(' ', fp);
  1941  002BC2  0E00               	movlw	0
  1942  002BC4  6E07               	movwf	(fputc@c+1)^0,c
  1943  002BC6  0E20               	movlw	32
  1944  002BC8  6E06               	movwf	fputc@c^0,c
  1945  002BCA  C014  F008         	movff	pad@fp,fputc@fp
  1946  002BCE  EC79  F015         	call	_fputc	;wreg free
  1947                           
  1948                           ;/opt/microchip/xc8/v2.20/pic/sources/c99/common/doprnt.c: 86:         ++i;
  1949  002BD2  4A1A               	infsnz	pad@i^0,f,c
  1950  002BD4  2A1B               	incf	(pad@i+1)^0,f,c
  1951  002BD6                     l3148:
  1952                           
  1953                           ;/opt/microchip/xc8/v2.20/pic/sources/c99/common/doprnt.c: 84:     while (i < w) {
  1954  002BD6  501C               	movf	pad@w^0,w,c
  1955  002BD8  5C1A               	subwf	pad@i^0,w,c
  1956  002BDA  501B               	movf	(pad@i+1)^0,w,c
  1957  002BDC  0A80               	xorlw	128
  1958  002BDE  6E19               	movwf	??_pad^0,c
  1959  002BE0  501D               	movf	(pad@w+1)^0,w,c
  1960  002BE2  0A80               	xorlw	128
  1961  002BE4  5819               	subwfb	??_pad^0,w,c
  1962  002BE6  A0D8               	btfss	status,0,c
  1963  002BE8  D7EC               	goto	l3144
  1964                           
  1965                           ;/opt/microchip/xc8/v2.20/pic/sources/c99/common/doprnt.c: 90:     if (!(flags & (1 << 0
      +                          ))) {
  1966  002BEA  0100               	movlb	0	; () banked
  1967  002BEC  B18A               	btfsc	_flags& (0+255),0,b
  1968  002BEE  D008               	goto	l3152
  1969                           
  1970                           ; BSR set to: 0
  1971                           ;/opt/microchip/xc8/v2.20/pic/sources/c99/common/doprnt.c: 91:         fputs((const char
      +                           *)buf, fp);
  1972  002BF0  C015  F00E         	movff	pad@buf,fputs@s
  1973  002BF4  C016  F00F         	movff	pad@buf+1,fputs@s+1
  1974  002BF8  C014  F010         	movff	pad@fp,fputs@fp
  1975  002BFC  EC5A  F017         	call	_fputs	;wreg free
  1976  002C00                     l3152:
  1977                           
  1978                           ;/opt/microchip/xc8/v2.20/pic/sources/c99/common/doprnt.c: 94:     return strlen(buf) + 
      +                          w;
  1979  002C00  C015  F006         	movff	pad@buf,strlen@s
  1980  002C04  C016  F007         	movff	pad@buf+1,strlen@s+1
  1981  002C08  ECBE  F017         	call	_strlen	;wreg free
  1982  002C0C  501C               	movf	pad@w^0,w,c
  1983  002C0E  2406               	addwf	?_strlen^0,w,c
  1984  002C10  6E14               	movwf	?_pad^0,c
  1985  002C12  501D               	movf	(pad@w+1)^0,w,c
  1986  002C14  2007               	addwfc	(?_strlen+1)^0,w,c
  1987  002C16  6E15               	movwf	(?_pad+1)^0,c
  1988  002C18  0012               	return		;funcret
  1989  002C1A                     __end_of_pad:
  1990                           	callstack 0
  1991                           
  1992 ;; *************** function _strlen *****************
  1993 ;; Defined at:
  1994 ;;		line 5 in file "/opt/microchip/xc8/v2.20/pic/sources/c99/common/strlen.c"
  1995 ;; Parameters:    Size  Location     Type
  1996 ;;  s               2    5[COMRAM] PTR const unsigned char 
  1997 ;;		 -> dbuf(32), 
  1998 ;; Auto vars:     Size  Location     Type
  1999 ;;  a               2    7[COMRAM] PTR const unsigned char 
  2000 ;;		 -> dbuf(32), 
  2001 ;; Return value:  Size  Location     Type
  2002 ;;                  2    5[COMRAM] unsigned int 
  2003 ;; Registers used:
  2004 ;;		wreg, fsr2l, fsr2h, status,2, status,0
  2005 ;; Tracked objects:
  2006 ;;		On entry : 0/0
  2007 ;;		On exit  : 0/0
  2008 ;;		Unchanged: 0/0
  2009 ;; Data sizes:     COMRAM   BANK0   BANK1   BANK2   BANK3   BANK4   BANK5   BANK6   BANK7   BANK8   BANK9  BANK10  BANK1
      +1  BANK12  BANK13  BANK14  BANK15  BANK16  BANK17  BANK18  BANK19  BANK20  BANK21  BANK22  BANK23  BANK24  BANK25  BANK2
      +6  BANK27  BANK28  BANK29  BANK30  BANK31
  2010 ;;      Params:         2       0       0       0       0       0       0       0       0       0       0       0       
      +0       0       0       0       0       0       0       0       0       0       0       0       0       0       0       
      +0       0       0       0       0       0
  2011 ;;      Locals:         2       0       0       0       0       0       0       0       0       0       0       0       
      +0       0       0       0       0       0       0       0       0       0       0       0       0       0       0       
      +0       0       0       0       0       0
  2012 ;;      Temps:          0       0       0       0       0       0       0       0       0       0       0       0       
      +0       0       0       0       0       0       0       0       0       0       0       0       0       0       0       
      +0       0       0       0       0       0
  2013 ;;      Totals:         4       0       0       0       0       0       0       0       0       0       0       0       
      +0       0       0       0       0       0       0       0       0       0       0       0       0       0       0       
      +0       0       0       0       0       0
  2014 ;;Total ram usage:        4 bytes
  2015 ;; Hardware stack levels used:    1
  2016 ;; Hardware stack levels required when called:    4
  2017 ;; This function calls:
  2018 ;;		Nothing
  2019 ;; This function is called by:
  2020 ;;		_pad
  2021 ;; This function uses a non-reentrant model
  2022 ;;
  2023                           
  2024                           	psect	text6
  2025  002F7C                     __ptext6:
  2026                           	callstack 0
  2027  002F7C                     _strlen:
  2028                           	callstack 21
  2029                           
  2030                           ;incstack = 0
  2031  002F7C  C006  F008         	movff	strlen@s,strlen@a
  2032  002F80  C007  F009         	movff	strlen@s+1,strlen@a+1
  2033  002F84  D002               	goto	l3090
  2034  002F86                     l3088:
  2035  002F86  4A06               	infsnz	strlen@s^0,f,c
  2036  002F88  2A07               	incf	(strlen@s+1)^0,f,c
  2037  002F8A                     l3090:
  2038  002F8A  0060  F01B  FFD9   	movff	strlen@s,fsr2l
  2039  002F90  0060  F01F  FFDA   	movff	strlen@s+1,fsr2h
  2040  002F96  50DF               	movf	indf2,w,c
  2041  002F98  A4D8               	btfss	status,2,c
  2042  002F9A  D7F5               	goto	l3088
  2043  002F9C  5008               	movf	strlen@a^0,w,c
  2044  002F9E  5C06               	subwf	strlen@s^0,w,c
  2045  002FA0  6E06               	movwf	?_strlen^0,c
  2046  002FA2  5009               	movf	(strlen@a+1)^0,w,c
  2047  002FA4  5807               	subwfb	(strlen@s+1)^0,w,c
  2048  002FA6  6E07               	movwf	(?_strlen+1)^0,c
  2049  002FA8  0012               	return		;funcret
  2050  002FAA                     __end_of_strlen:
  2051                           	callstack 0
  2052                           
  2053 ;; *************** function _fputs *****************
  2054 ;; Defined at:
  2055 ;;		line 8 in file "/opt/microchip/xc8/v2.20/pic/sources/c99/common/nf_fputs.c"
  2056 ;; Parameters:    Size  Location     Type
  2057 ;;  s               2   13[COMRAM] PTR const unsigned char 
  2058 ;;		 -> dbuf(32), 
  2059 ;;  fp              1   15[COMRAM] PTR struct _IO_FILE
  2060 ;;		 -> sprintf@f(6), 
  2061 ;; Auto vars:     Size  Location     Type
  2062 ;;  i               2   17[COMRAM] int 
  2063 ;;  c               1   16[COMRAM] unsigned char 
  2064 ;; Return value:  Size  Location     Type
  2065 ;;                  2   13[COMRAM] int 
  2066 ;; Registers used:
  2067 ;;		wreg, fsr1l, fsr1h, fsr2l, fsr2h, status,2, status,0, cstack
  2068 ;; Tracked objects:
  2069 ;;		On entry : 3F/0
  2070 ;;		On exit  : 0/0
  2071 ;;		Unchanged: 0/0
  2072 ;; Data sizes:     COMRAM   BANK0   BANK1   BANK2   BANK3   BANK4   BANK5   BANK6   BANK7   BANK8   BANK9  BANK10  BANK1
      +1  BANK12  BANK13  BANK14  BANK15  BANK16  BANK17  BANK18  BANK19  BANK20  BANK21  BANK22  BANK23  BANK24  BANK25  BANK2
      +6  BANK27  BANK28  BANK29  BANK30  BANK31
  2073 ;;      Params:         3       0       0       0       0       0       0       0       0       0       0       0       
      +0       0       0       0       0       0       0       0       0       0       0       0       0       0       0       
      +0       0       0       0       0       0
  2074 ;;      Locals:         3       0       0       0       0       0       0       0       0       0       0       0       
      +0       0       0       0       0       0       0       0       0       0       0       0       0       0       0       
      +0       0       0       0       0       0
  2075 ;;      Temps:          0       0       0       0       0       0       0       0       0       0       0       0       
      +0       0       0       0       0       0       0       0       0       0       0       0       0       0       0       
      +0       0       0       0       0       0
  2076 ;;      Totals:         6       0       0       0       0       0       0       0       0       0       0       0       
      +0       0       0       0       0       0       0       0       0       0       0       0       0       0       0       
      +0       0       0       0       0       0
  2077 ;;Total ram usage:        6 bytes
  2078 ;; Hardware stack levels used:    1
  2079 ;; Hardware stack levels required when called:    6
  2080 ;; This function calls:
  2081 ;;		_fputc
  2082 ;; This function is called by:
  2083 ;;		_pad
  2084 ;; This function uses a non-reentrant model
  2085 ;;
  2086                           
  2087                           	psect	text7
  2088  002EB4                     __ptext7:
  2089                           	callstack 0
  2090  002EB4                     _fputs:
  2091                           	callstack 19
  2092                           
  2093                           ; BSR set to: 0
  2094                           
  2095                           ;incstack = 0
  2096  002EB4  0E00               	movlw	0
  2097  002EB6  6E13               	movwf	(fputs@i+1)^0,c
  2098  002EB8  0E00               	movlw	0
  2099  002EBA  6E12               	movwf	fputs@i^0,c
  2100  002EBC  D009               	goto	l3084
  2101  002EBE                     l3080:
  2102  002EBE  C011  F006         	movff	fputs@c,fputc@c
  2103  002EC2  6A07               	clrf	(fputc@c+1)^0,c
  2104  002EC4  C010  F008         	movff	fputs@fp,fputc@fp
  2105  002EC8  EC79  F015         	call	_fputc	;wreg free
  2106  002ECC  4A12               	infsnz	fputs@i^0,f,c
  2107  002ECE  2A13               	incf	(fputs@i+1)^0,f,c
  2108  002ED0                     l3084:
  2109  002ED0  5012               	movf	fputs@i^0,w,c
  2110  002ED2  240E               	addwf	fputs@s^0,w,c
  2111  002ED4  6ED9               	movwf	fsr2l,c
  2112  002ED6  5013               	movf	(fputs@i+1)^0,w,c
  2113  002ED8  200F               	addwfc	(fputs@s+1)^0,w,c
  2114  002EDA  6EDA               	movwf	fsr2h,c
  2115  002EDC  50DF               	movf	indf2,w,c
  2116  002EDE  6E11               	movwf	fputs@c^0,c
  2117  002EE0  5011               	movf	fputs@c^0,w,c
  2118  002EE2  B4D8               	btfsc	status,2,c
  2119  002EE4  0012               	return	
  2120  002EE6  D7EB               	goto	l3080
  2121  002EE8                     __end_of_fputs:
  2122                           	callstack 0
  2123                           
  2124 ;; *************** function _fputc *****************
  2125 ;; Defined at:
  2126 ;;		line 8 in file "/opt/microchip/xc8/v2.20/pic/sources/c99/common/nf_fputc.c"
  2127 ;; Parameters:    Size  Location     Type
  2128 ;;  c               2    5[COMRAM] int 
  2129 ;;  fp              1    7[COMRAM] PTR struct _IO_FILE
  2130 ;;		 -> sprintf@f(6), 
  2131 ;; Auto vars:     Size  Location     Type
  2132 ;;		None
  2133 ;; Return value:  Size  Location     Type
  2134 ;;                  2    5[COMRAM] int 
  2135 ;; Registers used:
  2136 ;;		wreg, fsr1l, fsr1h, fsr2l, fsr2h, status,2, status,0, cstack
  2137 ;; Tracked objects:
  2138 ;;		On entry : 0/0
  2139 ;;		On exit  : 0/0
  2140 ;;		Unchanged: 0/0
  2141 ;; Data sizes:     COMRAM   BANK0   BANK1   BANK2   BANK3   BANK4   BANK5   BANK6   BANK7   BANK8   BANK9  BANK10  BANK1
      +1  BANK12  BANK13  BANK14  BANK15  BANK16  BANK17  BANK18  BANK19  BANK20  BANK21  BANK22  BANK23  BANK24  BANK25  BANK2
      +6  BANK27  BANK28  BANK29  BANK30  BANK31
  2142 ;;      Params:         3       0       0       0       0       0       0       0       0       0       0       0       
      +0       0       0       0       0       0       0       0       0       0       0       0       0       0       0       
      +0       0       0       0       0       0
  2143 ;;      Locals:         0       0       0       0       0       0       0       0       0       0       0       0       
      +0       0       0       0       0       0       0       0       0       0       0       0       0       0       0       
      +0       0       0       0       0       0
  2144 ;;      Temps:          5       0       0       0       0       0       0       0       0       0       0       0       
      +0       0       0       0       0       0       0       0       0       0       0       0       0       0       0       
      +0       0       0       0       0       0
  2145 ;;      Totals:         8       0       0       0       0       0       0       0       0       0       0       0       
      +0       0       0       0       0       0       0       0       0       0       0       0       0       0       0       
      +0       0       0       0       0       0
  2146 ;;Total ram usage:        8 bytes
  2147 ;; Hardware stack levels used:    1
  2148 ;; Hardware stack levels required when called:    5
  2149 ;; This function calls:
  2150 ;;		_putch
  2151 ;; This function is called by:
  2152 ;;		_pad
  2153 ;;		_vfpfcnvrt
  2154 ;;		_fputs
  2155 ;; This function uses a non-reentrant model
  2156 ;;
  2157                           
  2158                           	psect	text8
  2159  002AF2                     __ptext8:
  2160                           	callstack 0
  2161  002AF2                     _fputc:
  2162                           	callstack 19
  2163                           
  2164                           ;incstack = 0
  2165  002AF2  5008               	movf	fputc@fp^0,w,c
  2166  002AF4  B4D8               	btfsc	status,2,c
  2167  002AF6  D003               	goto	u1680
  2168  002AF8  5008               	movf	fputc@fp^0,w,c
  2169  002AFA  A4D8               	btfss	status,2,c
  2170  002AFC  D004               	goto	l3070
  2171  002AFE                     u1680:
  2172  002AFE  5006               	movf	fputc@c^0,w,c
  2173  002B00  EC46  F019         	call	_putch
  2174  002B04  0012               	return	
  2175  002B06                     l3070:
  2176  002B06  5008               	movf	fputc@fp^0,w,c
  2177  002B08  6ED9               	movwf	fsr2l,c
  2178  002B0A  6ADA               	clrf	fsr2h,c
  2179  002B0C  0E04               	movlw	4
  2180  002B0E  26D9               	addwf	fsr2l,f,c
  2181  002B10  50DE               	movf	postinc2,w,c
  2182  002B12  10DE               	iorwf	postinc2,w,c
  2183  002B14  B4D8               	btfsc	status,2,c
  2184  002B16  D014               	goto	u1700
  2185  002B18  5008               	movf	fputc@fp^0,w,c
  2186  002B1A  6ED9               	movwf	fsr2l,c
  2187  002B1C  6ADA               	clrf	fsr2h,c
  2188  002B1E  0E04               	movlw	4
  2189  002B20  26D9               	addwf	fsr2l,f,c
  2190  002B22  5008               	movf	fputc@fp^0,w,c
  2191  002B24  6EE1               	movwf	fsr1l,c
  2192  002B26  6AE2               	clrf	fsr1h,c
  2193  002B28  0E02               	movlw	2
  2194  002B2A  26E1               	addwf	fsr1l,f,c
  2195  002B2C  50DE               	movf	postinc2,w,c
  2196  002B2E  5CE6               	subwf	postinc1,w,c
  2197  002B30  50E6               	movf	postinc1,w,c
  2198  002B32  0A80               	xorlw	128
  2199  002B34  6E0D               	movwf	(??_fputc+4)^0,c
  2200  002B36  50DE               	movf	postinc2,w,c
  2201  002B38  0A80               	xorlw	128
  2202  002B3A  580D               	subwfb	(??_fputc+4)^0,w,c
  2203  002B3C  B0D8               	btfsc	status,0,c
  2204  002B3E  0012               	return	
  2205  002B40                     u1700:
  2206  002B40  5008               	movf	fputc@fp^0,w,c
  2207  002B42  6ED9               	movwf	fsr2l,c
  2208  002B44  6ADA               	clrf	fsr2h,c
  2209  002B46  0E02               	movlw	2
  2210  002B48  26D9               	addwf	fsr2l,f,c
  2211  002B4A  006F FF78  F009    	movff	postinc2,??_fputc
  2212  002B50  006F FF74  F00A    	movff	postdec2,??_fputc+1
  2213  002B56  5008               	movf	fputc@fp^0,w,c
  2214  002B58  6ED9               	movwf	fsr2l,c
  2215  002B5A  6ADA               	clrf	fsr2h,c
  2216  002B5C  006F FF78  F00B    	movff	postinc2,??_fputc+2
  2217  002B62  006F FF74  F00C    	movff	postdec2,??_fputc+3
  2218  002B68  5009               	movf	??_fputc^0,w,c
  2219  002B6A  240B               	addwf	(??_fputc+2)^0,w,c
  2220  002B6C  6ED9               	movwf	fsr2l,c
  2221  002B6E  500A               	movf	(??_fputc+1)^0,w,c
  2222  002B70  200C               	addwfc	(??_fputc+3)^0,w,c
  2223  002B72  6EDA               	movwf	fsr2h,c
  2224  002B74  0060  F01B  FFDF   	movff	fputc@c,indf2
  2225  002B7A  5008               	movf	fputc@fp^0,w,c
  2226  002B7C  6ED9               	movwf	fsr2l,c
  2227  002B7E  6ADA               	clrf	fsr2h,c
  2228  002B80  0E02               	movlw	2
  2229  002B82  26D9               	addwf	fsr2l,f,c
  2230  002B84  2ADE               	incf	postinc2,f,c
  2231  002B86  0E00               	movlw	0
  2232  002B88  22DD               	addwfc	postdec2,f,c
  2233  002B8A  0012               	return		;funcret
  2234  002B8C                     __end_of_fputc:
  2235                           	callstack 0
  2236                           
  2237 ;; *************** function _putch *****************
  2238 ;; Defined at:
  2239 ;;		line 7 in file "/opt/microchip/xc8/v2.20/pic/sources/c99/common/putch.c"
  2240 ;; Parameters:    Size  Location     Type
  2241 ;;  c               1    wreg     unsigned char 
  2242 ;; Auto vars:     Size  Location     Type
  2243 ;;  c               1    0[COMRAM] unsigned char 
  2244 ;; Return value:  Size  Location     Type
  2245 ;;                  1    wreg      void 
  2246 ;; Registers used:
  2247 ;;		wreg
  2248 ;; Tracked objects:
  2249 ;;		On entry : 0/0
  2250 ;;		On exit  : 0/0
  2251 ;;		Unchanged: 0/0
  2252 ;; Data sizes:     COMRAM   BANK0   BANK1   BANK2   BANK3   BANK4   BANK5   BANK6   BANK7   BANK8   BANK9  BANK10  BANK1
      +1  BANK12  BANK13  BANK14  BANK15  BANK16  BANK17  BANK18  BANK19  BANK20  BANK21  BANK22  BANK23  BANK24  BANK25  BANK2
      +6  BANK27  BANK28  BANK29  BANK30  BANK31
  2253 ;;      Params:         0       0       0       0       0       0       0       0       0       0       0       0       
      +0       0       0       0       0       0       0       0       0       0       0       0       0       0       0       
      +0       0       0       0       0       0
  2254 ;;      Locals:         0       0       0       0       0       0       0       0       0       0       0       0       
      +0       0       0       0       0       0       0       0       0       0       0       0       0       0       0       
      +0       0       0       0       0       0
  2255 ;;      Temps:          0       0       0       0       0       0       0       0       0       0       0       0       
      +0       0       0       0       0       0       0       0       0       0       0       0       0       0       0       
      +0       0       0       0       0       0
  2256 ;;      Totals:         0       0       0       0       0       0       0       0       0       0       0       0       
      +0       0       0       0       0       0       0       0       0       0       0       0       0       0       0       
      +0       0       0       0       0       0
  2257 ;;Total ram usage:        0 bytes
  2258 ;; Hardware stack levels used:    1
  2259 ;; Hardware stack levels required when called:    4
  2260 ;; This function calls:
  2261 ;;		Nothing
  2262 ;; This function is called by:
  2263 ;;		_fputc
  2264 ;; This function uses a non-reentrant model
  2265 ;;
  2266                           
  2267                           	psect	text9
  2268  00328C                     __ptext9:
  2269                           	callstack 0
  2270  00328C                     _putch:
  2271                           	callstack 19
  2272                           
  2273                           ;incstack = 0
  2274  00328C  0012               	return		;funcret
  2275  00328E                     __end_of_putch:
  2276                           	callstack 0
  2277                           
  2278 ;; *************** function ___lomod *****************
  2279 ;; Defined at:
  2280 ;;		line 9 in file "/opt/microchip/xc8/v2.20/pic/sources/c99/common/lomod.c"
  2281 ;; Parameters:    Size  Location     Type
  2282 ;;  dividend        8    5[COMRAM] unsigned long long 
  2283 ;;  divisor         8   13[COMRAM] unsigned long long 
  2284 ;; Auto vars:     Size  Location     Type
  2285 ;;  counter         1   21[COMRAM] unsigned char 
  2286 ;; Return value:  Size  Location     Type
  2287 ;;                  8    5[COMRAM] unsigned long long 
  2288 ;; Registers used:
  2289 ;;		wreg, status,2, status,0
  2290 ;; Tracked objects:
  2291 ;;		On entry : 0/1
  2292 ;;		On exit  : 0/0
  2293 ;;		Unchanged: 0/0
  2294 ;; Data sizes:     COMRAM   BANK0   BANK1   BANK2   BANK3   BANK4   BANK5   BANK6   BANK7   BANK8   BANK9  BANK10  BANK1
      +1  BANK12  BANK13  BANK14  BANK15  BANK16  BANK17  BANK18  BANK19  BANK20  BANK21  BANK22  BANK23  BANK24  BANK25  BANK2
      +6  BANK27  BANK28  BANK29  BANK30  BANK31
  2295 ;;      Params:        16       0       0       0       0       0       0       0       0       0       0       0       
      +0       0       0       0       0       0       0       0       0       0       0       0       0       0       0       
      +0       0       0       0       0       0
  2296 ;;      Locals:         1       0       0       0       0       0       0       0       0       0       0       0       
      +0       0       0       0       0       0       0       0       0       0       0       0       0       0       0       
      +0       0       0       0       0       0
  2297 ;;      Temps:          0       0       0       0       0       0       0       0       0       0       0       0       
      +0       0       0       0       0       0       0       0       0       0       0       0       0       0       0       
      +0       0       0       0       0       0
  2298 ;;      Totals:        17       0       0       0       0       0       0       0       0       0       0       0       
      +0       0       0       0       0       0       0       0       0       0       0       0       0       0       0       
      +0       0       0       0       0       0
  2299 ;;Total ram usage:       17 bytes
  2300 ;; Hardware stack levels used:    1
  2301 ;; Hardware stack levels required when called:    4
  2302 ;; This function calls:
  2303 ;;		Nothing
  2304 ;; This function is called by:
  2305 ;;		_utoa
  2306 ;; This function uses a non-reentrant model
  2307 ;;
  2308                           
  2309                           	psect	text10
  2310  0027B6                     __ptext10:
  2311                           	callstack 0
  2312  0027B6                     ___lomod:
  2313                           	callstack 22
  2314                           
  2315                           ;incstack = 0
  2316  0027B6  500E               	movf	___lomod@divisor^0,w,c
  2317  0027B8  100F               	iorwf	(___lomod@divisor+1)^0,w,c
  2318  0027BA  1010               	iorwf	(___lomod@divisor+2)^0,w,c
  2319  0027BC  1011               	iorwf	(___lomod@divisor+3)^0,w,c
  2320  0027BE  1012               	iorwf	(___lomod@divisor+4)^0,w,c
  2321  0027C0  1013               	iorwf	(___lomod@divisor+5)^0,w,c
  2322  0027C2  1014               	iorwf	(___lomod@divisor+6)^0,w,c
  2323  0027C4  1015               	iorwf	(___lomod@divisor+7)^0,w,c
  2324  0027C6  B4D8               	btfsc	status,2,c
  2325  0027C8  D03C               	goto	l1406
  2326  0027CA  0E01               	movlw	1
  2327  0027CC  6E16               	movwf	___lomod@counter^0,c
  2328  0027CE  D00A               	goto	l3124
  2329  0027D0                     l3122:
  2330  0027D0  90D8               	bcf	status,0,c
  2331  0027D2  360E               	rlcf	___lomod@divisor^0,f,c
  2332  0027D4  360F               	rlcf	(___lomod@divisor+1)^0,f,c
  2333  0027D6  3610               	rlcf	(___lomod@divisor+2)^0,f,c
  2334  0027D8  3611               	rlcf	(___lomod@divisor+3)^0,f,c
  2335  0027DA  3612               	rlcf	(___lomod@divisor+4)^0,f,c
  2336  0027DC  3613               	rlcf	(___lomod@divisor+5)^0,f,c
  2337  0027DE  3614               	rlcf	(___lomod@divisor+6)^0,f,c
  2338  0027E0  3615               	rlcf	(___lomod@divisor+7)^0,f,c
  2339  0027E2  2A16               	incf	___lomod@counter^0,f,c
  2340  0027E4                     l3124:
  2341  0027E4  AE15               	btfss	(___lomod@divisor+7)^0,7,c
  2342  0027E6  D7F4               	goto	l3122
  2343  0027E8                     u1780:
  2344  0027E8  500E               	movf	___lomod@divisor^0,w,c
  2345  0027EA  5C06               	subwf	___lomod@dividend^0,w,c
  2346  0027EC  500F               	movf	(___lomod@divisor+1)^0,w,c
  2347  0027EE  5807               	subwfb	(___lomod@dividend+1)^0,w,c
  2348  0027F0  5010               	movf	(___lomod@divisor+2)^0,w,c
  2349  0027F2  5808               	subwfb	(___lomod@dividend+2)^0,w,c
  2350  0027F4  5011               	movf	(___lomod@divisor+3)^0,w,c
  2351  0027F6  5809               	subwfb	(___lomod@dividend+3)^0,w,c
  2352  0027F8  5012               	movf	(___lomod@divisor+4)^0,w,c
  2353  0027FA  580A               	subwfb	(___lomod@dividend+4)^0,w,c
  2354  0027FC  5013               	movf	(___lomod@divisor+5)^0,w,c
  2355  0027FE  580B               	subwfb	(___lomod@dividend+5)^0,w,c
  2356  002800  5014               	movf	(___lomod@divisor+6)^0,w,c
  2357  002802  580C               	subwfb	(___lomod@dividend+6)^0,w,c
  2358  002804  5015               	movf	(___lomod@divisor+7)^0,w,c
  2359  002806  580D               	subwfb	(___lomod@dividend+7)^0,w,c
  2360  002808  A0D8               	btfss	status,0,c
  2361  00280A  D010               	goto	l3130
  2362  00280C  500E               	movf	___lomod@divisor^0,w,c
  2363  00280E  5E06               	subwf	___lomod@dividend^0,f,c
  2364  002810  500F               	movf	(___lomod@divisor+1)^0,w,c
  2365  002812  5A07               	subwfb	(___lomod@dividend+1)^0,f,c
  2366  002814  5010               	movf	(___lomod@divisor+2)^0,w,c
  2367  002816  5A08               	subwfb	(___lomod@dividend+2)^0,f,c
  2368  002818  5011               	movf	(___lomod@divisor+3)^0,w,c
  2369  00281A  5A09               	subwfb	(___lomod@dividend+3)^0,f,c
  2370  00281C  5012               	movf	(___lomod@divisor+4)^0,w,c
  2371  00281E  5A0A               	subwfb	(___lomod@dividend+4)^0,f,c
  2372  002820  5013               	movf	(___lomod@divisor+5)^0,w,c
  2373  002822  5A0B               	subwfb	(___lomod@dividend+5)^0,f,c
  2374  002824  5014               	movf	(___lomod@divisor+6)^0,w,c
  2375  002826  5A0C               	subwfb	(___lomod@dividend+6)^0,f,c
  2376  002828  5015               	movf	(___lomod@divisor+7)^0,w,c
  2377  00282A  5A0D               	subwfb	(___lomod@dividend+7)^0,f,c
  2378  00282C                     l3130:
  2379  00282C  90D8               	bcf	status,0,c
  2380  00282E  3215               	rrcf	(___lomod@divisor+7)^0,f,c
  2381  002830  3214               	rrcf	(___lomod@divisor+6)^0,f,c
  2382  002832  3213               	rrcf	(___lomod@divisor+5)^0,f,c
  2383  002834  3212               	rrcf	(___lomod@divisor+4)^0,f,c
  2384  002836  3211               	rrcf	(___lomod@divisor+3)^0,f,c
  2385  002838  3210               	rrcf	(___lomod@divisor+2)^0,f,c
  2386  00283A  320F               	rrcf	(___lomod@divisor+1)^0,f,c
  2387  00283C  320E               	rrcf	___lomod@divisor^0,f,c
  2388  00283E  2E16               	decfsz	___lomod@counter^0,f,c
  2389  002840  D7D3               	goto	u1780
  2390  002842                     l1406:
  2391  002842  C006  F006         	movff	___lomod@dividend,?___lomod
  2392  002846  C007  F007         	movff	___lomod@dividend+1,?___lomod+1
  2393  00284A  C008  F008         	movff	___lomod@dividend+2,?___lomod+2
  2394  00284E  C009  F009         	movff	___lomod@dividend+3,?___lomod+3
  2395  002852  C00A  F00A         	movff	___lomod@dividend+4,?___lomod+4
  2396  002856  C00B  F00B         	movff	___lomod@dividend+5,?___lomod+5
  2397  00285A  C00C  F00C         	movff	___lomod@dividend+6,?___lomod+6
  2398  00285E  C00D  F00D         	movff	___lomod@dividend+7,?___lomod+7
  2399  002862  0012               	return		;funcret
  2400  002864                     __end_of___lomod:
  2401                           	callstack 0
  2402                           
  2403 ;; *************** function ___lodiv *****************
  2404 ;; Defined at:
  2405 ;;		line 9 in file "/opt/microchip/xc8/v2.20/pic/sources/c99/common/lodiv.c"
  2406 ;; Parameters:    Size  Location     Type
  2407 ;;  dividend        8    5[COMRAM] unsigned long long 
  2408 ;;  divisor         8   13[COMRAM] unsigned long long 
  2409 ;; Auto vars:     Size  Location     Type
  2410 ;;  quotient        8   21[COMRAM] unsigned long long 
  2411 ;;  counter         1   29[COMRAM] unsigned char 
  2412 ;; Return value:  Size  Location     Type
  2413 ;;                  8    5[COMRAM] unsigned long long 
  2414 ;; Registers used:
  2415 ;;		wreg, fsr2l, fsr2h, status,2, status,0
  2416 ;; Tracked objects:
  2417 ;;		On entry : 0/1
  2418 ;;		On exit  : 0/0
  2419 ;;		Unchanged: 0/0
  2420 ;; Data sizes:     COMRAM   BANK0   BANK1   BANK2   BANK3   BANK4   BANK5   BANK6   BANK7   BANK8   BANK9  BANK10  BANK1
      +1  BANK12  BANK13  BANK14  BANK15  BANK16  BANK17  BANK18  BANK19  BANK20  BANK21  BANK22  BANK23  BANK24  BANK25  BANK2
      +6  BANK27  BANK28  BANK29  BANK30  BANK31
  2421 ;;      Params:        16       0       0       0       0       0       0       0       0       0       0       0       
      +0       0       0       0       0       0       0       0       0       0       0       0       0       0       0       
      +0       0       0       0       0       0
  2422 ;;      Locals:         9       0       0       0       0       0       0       0       0       0       0       0       
      +0       0       0       0       0       0       0       0       0       0       0       0       0       0       0       
      +0       0       0       0       0       0
  2423 ;;      Temps:          0       0       0       0       0       0       0       0       0       0       0       0       
      +0       0       0       0       0       0       0       0       0       0       0       0       0       0       0       
      +0       0       0       0       0       0
  2424 ;;      Totals:        25       0       0       0       0       0       0       0       0       0       0       0       
      +0       0       0       0       0       0       0       0       0       0       0       0       0       0       0       
      +0       0       0       0       0       0
  2425 ;;Total ram usage:       25 bytes
  2426 ;; Hardware stack levels used:    1
  2427 ;; Hardware stack levels required when called:    4
  2428 ;; This function calls:
  2429 ;;		Nothing
  2430 ;; This function is called by:
  2431 ;;		_utoa
  2432 ;; This function uses a non-reentrant model
  2433 ;;
  2434                           
  2435                           	psect	text11
  2436  00249E                     __ptext11:
  2437                           	callstack 0
  2438  00249E                     ___lodiv:
  2439                           	callstack 22
  2440                           
  2441                           ;incstack = 0
  2442  00249E  EE20  F016         	lfsr	2,___lodiv@quotient
  2443  0024A2  0E07               	movlw	7
  2444  0024A4                     u1731:
  2445  0024A4  6ADE               	clrf	postinc2,c
  2446  0024A6  06E8               	decf	wreg,f,c
  2447  0024A8  E2FD               	bc	u1731
  2448  0024AA  500E               	movf	___lodiv@divisor^0,w,c
  2449  0024AC  100F               	iorwf	(___lodiv@divisor+1)^0,w,c
  2450  0024AE  1010               	iorwf	(___lodiv@divisor+2)^0,w,c
  2451  0024B0  1011               	iorwf	(___lodiv@divisor+3)^0,w,c
  2452  0024B2  1012               	iorwf	(___lodiv@divisor+4)^0,w,c
  2453  0024B4  1013               	iorwf	(___lodiv@divisor+5)^0,w,c
  2454  0024B6  1014               	iorwf	(___lodiv@divisor+6)^0,w,c
  2455  0024B8  1015               	iorwf	(___lodiv@divisor+7)^0,w,c
  2456  0024BA  B4D8               	btfsc	status,2,c
  2457  0024BC  D046               	goto	l1396
  2458  0024BE  0E01               	movlw	1
  2459  0024C0  6E1E               	movwf	___lodiv@counter^0,c
  2460  0024C2  D00A               	goto	l3104
  2461  0024C4                     l3102:
  2462  0024C4  90D8               	bcf	status,0,c
  2463  0024C6  360E               	rlcf	___lodiv@divisor^0,f,c
  2464  0024C8  360F               	rlcf	(___lodiv@divisor+1)^0,f,c
  2465  0024CA  3610               	rlcf	(___lodiv@divisor+2)^0,f,c
  2466  0024CC  3611               	rlcf	(___lodiv@divisor+3)^0,f,c
  2467  0024CE  3612               	rlcf	(___lodiv@divisor+4)^0,f,c
  2468  0024D0  3613               	rlcf	(___lodiv@divisor+5)^0,f,c
  2469  0024D2  3614               	rlcf	(___lodiv@divisor+6)^0,f,c
  2470  0024D4  3615               	rlcf	(___lodiv@divisor+7)^0,f,c
  2471  0024D6  2A1E               	incf	___lodiv@counter^0,f,c
  2472  0024D8                     l3104:
  2473  0024D8  AE15               	btfss	(___lodiv@divisor+7)^0,7,c
  2474  0024DA  D7F4               	goto	l3102
  2475  0024DC                     u1750:
  2476  0024DC  90D8               	bcf	status,0,c
  2477  0024DE  3616               	rlcf	___lodiv@quotient^0,f,c
  2478  0024E0  3617               	rlcf	(___lodiv@quotient+1)^0,f,c
  2479  0024E2  3618               	rlcf	(___lodiv@quotient+2)^0,f,c
  2480  0024E4  3619               	rlcf	(___lodiv@quotient+3)^0,f,c
  2481  0024E6  361A               	rlcf	(___lodiv@quotient+4)^0,f,c
  2482  0024E8  361B               	rlcf	(___lodiv@quotient+5)^0,f,c
  2483  0024EA  361C               	rlcf	(___lodiv@quotient+6)^0,f,c
  2484  0024EC  361D               	rlcf	(___lodiv@quotient+7)^0,f,c
  2485  0024EE  500E               	movf	___lodiv@divisor^0,w,c
  2486  0024F0  5C06               	subwf	___lodiv@dividend^0,w,c
  2487  0024F2  500F               	movf	(___lodiv@divisor+1)^0,w,c
  2488  0024F4  5807               	subwfb	(___lodiv@dividend+1)^0,w,c
  2489  0024F6  5010               	movf	(___lodiv@divisor+2)^0,w,c
  2490  0024F8  5808               	subwfb	(___lodiv@dividend+2)^0,w,c
  2491  0024FA  5011               	movf	(___lodiv@divisor+3)^0,w,c
  2492  0024FC  5809               	subwfb	(___lodiv@dividend+3)^0,w,c
  2493  0024FE  5012               	movf	(___lodiv@divisor+4)^0,w,c
  2494  002500  580A               	subwfb	(___lodiv@dividend+4)^0,w,c
  2495  002502  5013               	movf	(___lodiv@divisor+5)^0,w,c
  2496  002504  580B               	subwfb	(___lodiv@dividend+5)^0,w,c
  2497  002506  5014               	movf	(___lodiv@divisor+6)^0,w,c
  2498  002508  580C               	subwfb	(___lodiv@dividend+6)^0,w,c
  2499  00250A  5015               	movf	(___lodiv@divisor+7)^0,w,c
  2500  00250C  580D               	subwfb	(___lodiv@dividend+7)^0,w,c
  2501  00250E  A0D8               	btfss	status,0,c
  2502  002510  D011               	goto	l3114
  2503  002512  500E               	movf	___lodiv@divisor^0,w,c
  2504  002514  5E06               	subwf	___lodiv@dividend^0,f,c
  2505  002516  500F               	movf	(___lodiv@divisor+1)^0,w,c
  2506  002518  5A07               	subwfb	(___lodiv@dividend+1)^0,f,c
  2507  00251A  5010               	movf	(___lodiv@divisor+2)^0,w,c
  2508  00251C  5A08               	subwfb	(___lodiv@dividend+2)^0,f,c
  2509  00251E  5011               	movf	(___lodiv@divisor+3)^0,w,c
  2510  002520  5A09               	subwfb	(___lodiv@dividend+3)^0,f,c
  2511  002522  5012               	movf	(___lodiv@divisor+4)^0,w,c
  2512  002524  5A0A               	subwfb	(___lodiv@dividend+4)^0,f,c
  2513  002526  5013               	movf	(___lodiv@divisor+5)^0,w,c
  2514  002528  5A0B               	subwfb	(___lodiv@dividend+5)^0,f,c
  2515  00252A  5014               	movf	(___lodiv@divisor+6)^0,w,c
  2516  00252C  5A0C               	subwfb	(___lodiv@dividend+6)^0,f,c
  2517  00252E  5015               	movf	(___lodiv@divisor+7)^0,w,c
  2518  002530  5A0D               	subwfb	(___lodiv@dividend+7)^0,f,c
  2519  002532  8016               	bsf	___lodiv@quotient^0,0,c
  2520  002534                     l3114:
  2521  002534  90D8               	bcf	status,0,c
  2522  002536  3215               	rrcf	(___lodiv@divisor+7)^0,f,c
  2523  002538  3214               	rrcf	(___lodiv@divisor+6)^0,f,c
  2524  00253A  3213               	rrcf	(___lodiv@divisor+5)^0,f,c
  2525  00253C  3212               	rrcf	(___lodiv@divisor+4)^0,f,c
  2526  00253E  3211               	rrcf	(___lodiv@divisor+3)^0,f,c
  2527  002540  3210               	rrcf	(___lodiv@divisor+2)^0,f,c
  2528  002542  320F               	rrcf	(___lodiv@divisor+1)^0,f,c
  2529  002544  320E               	rrcf	___lodiv@divisor^0,f,c
  2530  002546  2E1E               	decfsz	___lodiv@counter^0,f,c
  2531  002548  D7C9               	goto	u1750
  2532  00254A                     l1396:
  2533  00254A  C016  F006         	movff	___lodiv@quotient,?___lodiv
  2534  00254E  C017  F007         	movff	___lodiv@quotient+1,?___lodiv+1
  2535  002552  C018  F008         	movff	___lodiv@quotient+2,?___lodiv+2
  2536  002556  C019  F009         	movff	___lodiv@quotient+3,?___lodiv+3
  2537  00255A  C01A  F00A         	movff	___lodiv@quotient+4,?___lodiv+4
  2538  00255E  C01B  F00B         	movff	___lodiv@quotient+5,?___lodiv+5
  2539  002562  C01C  F00C         	movff	___lodiv@quotient+6,?___lodiv+6
  2540  002566  C01D  F00D         	movff	___lodiv@quotient+7,?___lodiv+7
  2541  00256A  0012               	return		;funcret
  2542  00256C                     __end_of___lodiv:
  2543                           	callstack 0
  2544                           
  2545 ;; *************** function _strncmp *****************
  2546 ;; Defined at:
  2547 ;;		line 3 in file "/opt/microchip/xc8/v2.20/pic/sources/c99/common/strncmp.c"
  2548 ;; Parameters:    Size  Location     Type
  2549 ;;  _l              1    5[COMRAM] PTR const unsigned char 
  2550 ;;		 -> STR_3(27), 
  2551 ;;  _r              1    6[COMRAM] PTR const unsigned char 
  2552 ;;		 -> STR_6(3), 
  2553 ;;  n               2    7[COMRAM] unsigned int 
  2554 ;; Auto vars:     Size  Location     Type
  2555 ;;  r               1   11[COMRAM] PTR const unsigned char 
  2556 ;;		 -> STR_6(3), 
  2557 ;;  l               1   10[COMRAM] PTR const unsigned char 
  2558 ;;		 -> STR_3(27), 
  2559 ;; Return value:  Size  Location     Type
  2560 ;;                  2    5[COMRAM] int 
  2561 ;; Registers used:
  2562 ;;		wreg, status,2, status,0, tblptrl, tblptrh, tblptru
  2563 ;; Tracked objects:
  2564 ;;		On entry : 3F/0
  2565 ;;		On exit  : 3F/0
  2566 ;;		Unchanged: 3F/0
  2567 ;; Data sizes:     COMRAM   BANK0   BANK1   BANK2   BANK3   BANK4   BANK5   BANK6   BANK7   BANK8   BANK9  BANK10  BANK1
      +1  BANK12  BANK13  BANK14  BANK15  BANK16  BANK17  BANK18  BANK19  BANK20  BANK21  BANK22  BANK23  BANK24  BANK25  BANK2
      +6  BANK27  BANK28  BANK29  BANK30  BANK31
  2568 ;;      Params:         4       0       0       0       0       0       0       0       0       0       0       0       
      +0       0       0       0       0       0       0       0       0       0       0       0       0       0       0       
      +0       0       0       0       0       0
  2569 ;;      Locals:         2       0       0       0       0       0       0       0       0       0       0       0       
      +0       0       0       0       0       0       0       0       0       0       0       0       0       0       0       
      +0       0       0       0       0       0
  2570 ;;      Temps:          1       0       0       0       0       0       0       0       0       0       0       0       
      +0       0       0       0       0       0       0       0       0       0       0       0       0       0       0       
      +0       0       0       0       0       0
  2571 ;;      Totals:         7       0       0       0       0       0       0       0       0       0       0       0       
      +0       0       0       0       0       0       0       0       0       0       0       0       0       0       0       
      +0       0       0       0       0       0
  2572 ;;Total ram usage:        7 bytes
  2573 ;; Hardware stack levels used:    1
  2574 ;; Hardware stack levels required when called:    4
  2575 ;; This function calls:
  2576 ;;		Nothing
  2577 ;; This function is called by:
  2578 ;;		_vfpfcnvrt
  2579 ;; This function uses a non-reentrant model
  2580 ;;
  2581                           
  2582                           	psect	text12
  2583  00263A                     __ptext12:
  2584                           	callstack 0
  2585  00263A                     _strncmp:
  2586                           	callstack 23
  2587                           
  2588                           ; BSR set to: 0
  2589                           
  2590                           ;incstack = 0
  2591  00263A  C006  F00B         	movff	strncmp@_l,strncmp@l
  2592  00263E  C007  F00C         	movff	strncmp@_r,strncmp@r
  2593  002642  0608               	decf	strncmp@n^0,f,c
  2594  002644  A0D8               	btfss	status,0,c
  2595  002646  0609               	decf	(strncmp@n+1)^0,f,c
  2596  002648  2808               	incf	strncmp@n^0,w,c
  2597  00264A  E10D               	bnz	l3200
  2598  00264C  2809               	incf	(strncmp@n+1)^0,w,c
  2599  00264E  A4D8               	btfss	status,2,c
  2600  002650  D00A               	goto	l3200
  2601                           
  2602                           ; BSR set to: 0
  2603  002652  0E00               	movlw	0
  2604  002654  6E07               	movwf	(?_strncmp+1)^0,c
  2605  002656  0E00               	movlw	0
  2606  002658  6E06               	movwf	?_strncmp^0,c
  2607  00265A  0012               	return	
  2608  00265C                     l3198:
  2609                           
  2610                           ; BSR set to: 0
  2611  00265C  2A0B               	incf	strncmp@l^0,f,c
  2612  00265E  2A0C               	incf	strncmp@r^0,f,c
  2613  002660  0608               	decf	strncmp@n^0,f,c
  2614  002662  A0D8               	btfss	status,0,c
  2615  002664  0609               	decf	(strncmp@n+1)^0,f,c
  2616  002666                     l3200:
  2617                           
  2618                           ; BSR set to: 0
  2619  002666  0060  F02F  FFF6   	movff	strncmp@l,tblptrl
  2620  00266C                     	if	1	;There is more than 1 active tblptr byte
  2621  00266C  0E20               	movlw	high __smallconst
  2622  00266E  6EF7               	movwf	tblptrh,c
  2623  002670                     	endif
  2624  002670                     	if	0	;tblptru may be non-zero
  2625  002670                     	endif
  2626  002670                     	if	1	;Program memory is > 0xFFFF, there are 3 active tblptr bytes
  2627  002670  0E00               	movlw	low (__smallconst shr (0+16))
  2628  002672  6EF8               	movwf	tblptru,c
  2629  002674                     	endif
  2630  002674  0008               	tblrd		*
  2631  002676  50F5               	movf	tablat,w,c
  2632  002678  0900               	iorlw	0
  2633  00267A  B4D8               	btfsc	status,2,c
  2634  00267C  D027               	goto	u1950
  2635                           
  2636                           ; BSR set to: 0
  2637  00267E  0060  F033  FFF6   	movff	strncmp@r,tblptrl
  2638  002684                     	if	1	;There is more than 1 active tblptr byte
  2639  002684  0E20               	movlw	high __smallconst
  2640  002686  6EF7               	movwf	tblptrh,c
  2641  002688                     	endif
  2642  002688                     	if	0	;tblptru may be non-zero
  2643  002688                     	endif
  2644  002688                     	if	1	;Program memory is > 0xFFFF, there are 3 active tblptr bytes
  2645  002688  0E00               	movlw	low (__smallconst shr (0+16))
  2646  00268A  6EF8               	movwf	tblptru,c
  2647  00268C                     	endif
  2648  00268C  0008               	tblrd		*
  2649  00268E  50F5               	movf	tablat,w,c
  2650  002690  0900               	iorlw	0
  2651  002692  B4D8               	btfsc	status,2,c
  2652  002694  D01B               	goto	u1950
  2653                           
  2654                           ; BSR set to: 0
  2655  002696  5008               	movf	strncmp@n^0,w,c
  2656  002698  1009               	iorwf	(strncmp@n+1)^0,w,c
  2657  00269A  B4D8               	btfsc	status,2,c
  2658  00269C  D017               	goto	u1950
  2659                           
  2660                           ; BSR set to: 0
  2661  00269E  0060  F02F  FFF6   	movff	strncmp@l,tblptrl
  2662  0026A4                     	if	1	;There is more than 1 active tblptr byte
  2663  0026A4  0E20               	movlw	high __smallconst
  2664  0026A6  6EF7               	movwf	tblptrh,c
  2665  0026A8                     	endif
  2666  0026A8                     	if	0	;tblptru may be non-zero
  2667  0026A8                     	endif
  2668  0026A8                     	if	1	;Program memory is > 0xFFFF, there are 3 active tblptr bytes
  2669  0026A8  0E00               	movlw	low (__smallconst shr (0+16))
  2670  0026AA  6EF8               	movwf	tblptru,c
  2671  0026AC                     	endif
  2672  0026AC  0008               	tblrd		*
  2673  0026AE  006F FFD4  F00A    	movff	tablat,??_strncmp
  2674  0026B4  0060  F033  FFF6   	movff	strncmp@r,tblptrl
  2675  0026BA                     	if	1	;There is more than 1 active tblptr byte
  2676  0026BA  0E20               	movlw	high __smallconst
  2677  0026BC  6EF7               	movwf	tblptrh,c
  2678  0026BE                     	endif
  2679  0026BE                     	if	0	;tblptru may be non-zero
  2680  0026BE                     	endif
  2681  0026BE                     	if	1	;Program memory is > 0xFFFF, there are 3 active tblptr bytes
  2682  0026BE  0E00               	movlw	low (__smallconst shr (0+16))
  2683  0026C0  6EF8               	movwf	tblptru,c
  2684  0026C2                     	endif
  2685  0026C2  0008               	tblrd		*
  2686  0026C4  50F5               	movf	tablat,w,c
  2687  0026C6  180A               	xorwf	??_strncmp^0,w,c
  2688  0026C8  B4D8               	btfsc	status,2,c
  2689  0026CA  D7C8               	goto	l3198
  2690  0026CC                     u1950:
  2691                           
  2692                           ; BSR set to: 0
  2693  0026CC  0060  F02F  FFF6   	movff	strncmp@l,tblptrl
  2694  0026D2                     	if	1	;There is more than 1 active tblptr byte
  2695  0026D2  0E20               	movlw	high __smallconst
  2696  0026D4  6EF7               	movwf	tblptrh,c
  2697  0026D6                     	endif
  2698  0026D6                     	if	0	;tblptru may be non-zero
  2699  0026D6                     	endif
  2700  0026D6                     	if	1	;Program memory is > 0xFFFF, there are 3 active tblptr bytes
  2701  0026D6  0E00               	movlw	low (__smallconst shr (0+16))
  2702  0026D8  6EF8               	movwf	tblptru,c
  2703  0026DA                     	endif
  2704  0026DA  0008               	tblrd		*
  2705  0026DC  006F FFD4  F00A    	movff	tablat,??_strncmp
  2706  0026E2  0060  F033  FFF6   	movff	strncmp@r,tblptrl
  2707  0026E8                     	if	1	;There is more than 1 active tblptr byte
  2708  0026E8  0E20               	movlw	high __smallconst
  2709  0026EA  6EF7               	movwf	tblptrh,c
  2710  0026EC                     	endif
  2711  0026EC                     	if	0	;tblptru may be non-zero
  2712  0026EC                     	endif
  2713  0026EC                     	if	1	;Program memory is > 0xFFFF, there are 3 active tblptr bytes
  2714  0026EC  0E00               	movlw	low (__smallconst shr (0+16))
  2715  0026EE  6EF8               	movwf	tblptru,c
  2716  0026F0                     	endif
  2717  0026F0  0008               	tblrd		*
  2718  0026F2  50F5               	movf	tablat,w,c
  2719  0026F4  5C0A               	subwf	??_strncmp^0,w,c
  2720  0026F6  6E06               	movwf	?_strncmp^0,c
  2721  0026F8  6A07               	clrf	(?_strncmp+1)^0,c
  2722  0026FA  A0D8               	btfss	status,0,c
  2723  0026FC  0607               	decf	(?_strncmp+1)^0,f,c
  2724                           
  2725                           ; BSR set to: 0
  2726  0026FE  0012               	return		;funcret
  2727  002700                     __end_of_strncmp:
  2728                           	callstack 0
  2729                           
  2730 ;; *************** function _controller_work *****************
  2731 ;; Defined at:
  2732 ;;		line 126 in file "main.c"
  2733 ;; Parameters:    Size  Location     Type
  2734 ;;		None
  2735 ;; Auto vars:     Size  Location     Type
  2736 ;;		None
  2737 ;; Return value:  Size  Location     Type
  2738 ;;                  2    9[COMRAM] unsigned short 
  2739 ;; Registers used:
  2740 ;;		wreg, status,2, status,0, cstack
  2741 ;; Tracked objects:
  2742 ;;		On entry : 0/39
  2743 ;;		On exit  : 3E/0
  2744 ;;		Unchanged: 0/0
  2745 ;; Data sizes:     COMRAM   BANK0   BANK1   BANK2   BANK3   BANK4   BANK5   BANK6   BANK7   BANK8   BANK9  BANK10  BANK1
      +1  BANK12  BANK13  BANK14  BANK15  BANK16  BANK17  BANK18  BANK19  BANK20  BANK21  BANK22  BANK23  BANK24  BANK25  BANK2
      +6  BANK27  BANK28  BANK29  BANK30  BANK31
  2746 ;;      Params:         2       0       0       0       0       0       0       0       0       0       0       0       
      +0       0       0       0       0       0       0       0       0       0       0       0       0       0       0       
      +0       0       0       0       0       0
  2747 ;;      Locals:         0       0       0       0       0       0       0       0       0       0       0       0       
      +0       0       0       0       0       0       0       0       0       0       0       0       0       0       0       
      +0       0       0       0       0       0
  2748 ;;      Temps:          0       0       0       0       0       0       0       0       0       0       0       0       
      +0       0       0       0       0       0       0       0       0       0       0       0       0       0       0       
      +0       0       0       0       0       0
  2749 ;;      Totals:         2       0       0       0       0       0       0       0       0       0       0       0       
      +0       0       0       0       0       0       0       0       0       0       0       0       0       0       0       
      +0       0       0       0       0       0
  2750 ;;Total ram usage:        2 bytes
  2751 ;; Hardware stack levels used:    1
  2752 ;; Hardware stack levels required when called:    5
  2753 ;; This function calls:
  2754 ;;		_ADCC_GetConversionResult
  2755 ;;		_ADCC_IsConversionDone
  2756 ;;		_ADCC_StartConversion
  2757 ;; This function is called by:
  2758 ;;		_main
  2759 ;; This function uses a non-reentrant model
  2760 ;;
  2761                           
  2762                           	psect	text13
  2763  00256C                     __ptext13:
  2764                           	callstack 0
  2765  00256C                     _controller_work:
  2766                           	callstack 25
  2767                           
  2768                           ;main.c: 128:  static uint16_t pwm_val = 430;;main.c: 130:  ADCC_StartConversion(AIR_TEM
      +                          P);
  2769                           
  2770                           ; BSR set to: 0
  2771                           ;incstack = 0
  2772  00256C  0E01               	movlw	1
  2773  00256E  ECD9  F018         	call	_ADCC_StartConversion
  2774  002572                     l3500:
  2775                           
  2776                           ; BSR set to: 62
  2777  002572  ECE1  F018         	call	_ADCC_IsConversionDone	;wreg free
  2778  002576  0900               	iorlw	0
  2779  002578  B4D8               	btfsc	status,2,c
  2780  00257A  D7FB               	goto	l3500
  2781                           
  2782                           ; BSR set to: 62
  2783                           ;main.c: 133:  if ((temp = ADCC_GetConversionResult()) > 1250) {
  2784  00257C  ECCF  F018         	call	_ADCC_GetConversionResult	;wreg free
  2785  002580  C006  F1CE         	movff	?_ADCC_GetConversionResult,_temp
  2786  002584  C007  F1CF         	movff	?_ADCC_GetConversionResult+1,_temp+1
  2787  002588  0101               	movlb	1	; () banked
  2788  00258A  6BD0               	clrf	(_temp+2)& (0+255),b
  2789  00258C  6BD1               	clrf	(_temp+3)& (0+255),b
  2790  00258E  51D1               	movf	(_temp+3)& (0+255),w,b
  2791  002590  11D0               	iorwf	(_temp+2)& (0+255),w,b
  2792  002592  E106               	bnz	u2080
  2793  002594  0EE3               	movlw	227
  2794  002596  5DCE               	subwf	_temp& (0+255),w,b
  2795  002598  0E04               	movlw	4
  2796  00259A  59CF               	subwfb	(_temp+1)& (0+255),w,b
  2797  00259C  A0D8               	btfss	status,0,c
  2798  00259E  D005               	goto	l3506
  2799  0025A0                     u2080:
  2800                           
  2801                           ; BSR set to: 1
  2802                           ;main.c: 134:   pwm_val = 300;
  2803  0025A0  0E01               	movlw	1
  2804  0025A2  0100               	movlb	0	; () banked
  2805  0025A4  6FB3               	movwf	(controller_work@pwm_val+1)& (0+255),b
  2806  0025A6  0E2C               	movlw	44
  2807  0025A8  6FB2               	movwf	controller_work@pwm_val& (0+255),b
  2808  0025AA                     l3506:
  2809                           
  2810                           ;main.c: 137:  if (!PORTAbits.RA2) {
  2811  0025AA  B4CA               	btfsc	202,2,c	;volatile
  2812  0025AC  D007               	goto	l3512
  2813                           
  2814                           ;main.c: 138:   do { LATDbits.LATD1 = 1; } while(0);
  2815  0025AE  82BD               	bsf	189,1,c	;volatile
  2816                           
  2817                           ;main.c: 139:   do { LATAbits.LATA5 = 1; } while(0);
  2818  0025B0  8ABA               	bsf	186,5,c	;volatile
  2819                           
  2820                           ;main.c: 140:   return 430;
  2821  0025B2  0E01               	movlw	1
  2822  0025B4  6E0B               	movwf	(?_controller_work+1)^0,c
  2823  0025B6  0EAE               	movlw	174
  2824  0025B8  6E0A               	movwf	?_controller_work^0,c
  2825  0025BA  0012               	return	
  2826  0025BC                     l3512:
  2827                           
  2828                           ;main.c: 143:  ADCC_StartConversion(AIR_FLOW);
  2829  0025BC  0E00               	movlw	0
  2830  0025BE  ECD9  F018         	call	_ADCC_StartConversion
  2831  0025C2                     l3514:
  2832                           
  2833                           ; BSR set to: 62
  2834  0025C2  ECE1  F018         	call	_ADCC_IsConversionDone	;wreg free
  2835  0025C6  0900               	iorlw	0
  2836  0025C8  B4D8               	btfsc	status,2,c
  2837  0025CA  D7FB               	goto	l3514
  2838                           
  2839                           ; BSR set to: 62
  2840                           ;main.c: 146:  if ((flow = ADCC_GetConversionResult()) > 4000) {
  2841  0025CC  ECCF  F018         	call	_ADCC_GetConversionResult	;wreg free
  2842  0025D0  C006  F1D2         	movff	?_ADCC_GetConversionResult,_flow
  2843  0025D4  C007  F1D3         	movff	?_ADCC_GetConversionResult+1,_flow+1
  2844  0025D8  0101               	movlb	1	; () banked
  2845  0025DA  6BD4               	clrf	(_flow+2)& (0+255),b
  2846  0025DC  6BD5               	clrf	(_flow+3)& (0+255),b
  2847  0025DE  51D5               	movf	(_flow+3)& (0+255),w,b
  2848  0025E0  11D4               	iorwf	(_flow+2)& (0+255),w,b
  2849  0025E2  E106               	bnz	u2110
  2850  0025E4  0EA1               	movlw	161
  2851  0025E6  5DD2               	subwf	_flow& (0+255),w,b
  2852  0025E8  0E0F               	movlw	15
  2853  0025EA  59D3               	subwfb	(_flow+1)& (0+255),w,b
  2854  0025EC  A0D8               	btfss	status,0,c
  2855  0025EE  D019               	goto	l3526
  2856  0025F0                     u2110:
  2857                           
  2858                           ; BSR set to: 1
  2859                           ;main.c: 147:   if (max_heat_time >= 30000) {
  2860  0025F0  0E30               	movlw	48
  2861  0025F2  0100               	movlb	0	; () banked
  2862  0025F4  5D8E               	subwf	_max_heat_time& (0+255),w,b	;volatile
  2863  0025F6  0E75               	movlw	117
  2864  0025F8  598F               	subwfb	(_max_heat_time+1)& (0+255),w,b	;volatile
  2865  0025FA  A0D8               	btfss	status,0,c
  2866  0025FC  D00B               	goto	l930
  2867                           
  2868                           ; BSR set to: 0
  2869                           
  2870                           ;main.c: 148:    do { LATDbits.LATD1 = 0; } while(0);
  2871  0025FE  92BD               	bcf	189,1,c	;volatile
  2872                           
  2873                           ; BSR set to: 0
  2874                           
  2875                           ;main.c: 149:    do { LATAbits.LATA5 = 0; } while(0);
  2876  002600  9ABA               	bcf	186,5,c	;volatile
  2877                           
  2878                           ; BSR set to: 0
  2879                           ;main.c: 150:    max_heat_time = 30000 + 1;
  2880  002602  0E75               	movlw	117
  2881  002604  6F8F               	movwf	(_max_heat_time+1)& (0+255),b	;volatile
  2882  002606  0E31               	movlw	49
  2883  002608  6F8E               	movwf	_max_heat_time& (0+255),b	;volatile
  2884                           
  2885                           ;main.c: 151:    return 1;
  2886  00260A  0E00               	movlw	0
  2887  00260C  6E0B               	movwf	(?_controller_work+1)^0,c
  2888  00260E  0E01               	movlw	1
  2889  002610  6E0A               	movwf	?_controller_work^0,c
  2890  002612  0012               	return	
  2891  002614                     l930:
  2892                           
  2893                           ; BSR set to: 0
  2894  002614  82BD               	bsf	189,1,c	;volatile
  2895                           
  2896                           ; BSR set to: 0
  2897                           
  2898                           ;main.c: 154:    do { LATAbits.LATA5 = 1; } while(0);
  2899  002616  8ABA               	bsf	186,5,c	;volatile
  2900                           
  2901                           ; BSR set to: 0
  2902                           ;main.c: 155:    return pwm_val;
  2903  002618  C0B2  F00A         	movff	controller_work@pwm_val,?_controller_work
  2904  00261C  C0B3  F00B         	movff	controller_work@pwm_val+1,?_controller_work+1
  2905  002620  0012               	return	
  2906  002622                     l3526:
  2907                           
  2908                           ; BSR set to: 1
  2909                           ;main.c: 159:   max_heat_time = 0;
  2910  002622  0E00               	movlw	0
  2911  002624  0100               	movlb	0	; () banked
  2912  002626  6F8F               	movwf	(_max_heat_time+1)& (0+255),b	;volatile
  2913  002628  0E00               	movlw	0
  2914  00262A  6F8E               	movwf	_max_heat_time& (0+255),b	;volatile
  2915                           
  2916                           ; BSR set to: 0
  2917  00262C  92BD               	bcf	189,1,c	;volatile
  2918                           
  2919                           ; BSR set to: 0
  2920  00262E  9ABA               	bcf	186,5,c	;volatile
  2921                           
  2922                           ; BSR set to: 0
  2923                           ;main.c: 164:  return 1;
  2924  002630  0E00               	movlw	0
  2925  002632  6E0B               	movwf	(?_controller_work+1)^0,c
  2926  002634  0E01               	movlw	1
  2927  002636  6E0A               	movwf	?_controller_work^0,c
  2928  002638  0012               	return		;funcret
  2929  00263A                     __end_of_controller_work:
  2930                           	callstack 0
  2931                           
  2932 ;; *************** function _ADCC_StartConversion *****************
  2933 ;; Defined at:
  2934 ;;		line 113 in file "mcc_generated_files/adcc.c"
  2935 ;; Parameters:    Size  Location     Type
  2936 ;;  channel         1    wreg     enum E15802
  2937 ;; Auto vars:     Size  Location     Type
  2938 ;;  channel         1    5[COMRAM] enum E15802
  2939 ;; Return value:  Size  Location     Type
  2940 ;;                  1    wreg      void 
  2941 ;; Registers used:
  2942 ;;		wreg
  2943 ;; Tracked objects:
  2944 ;;		On entry : 0/39
  2945 ;;		On exit  : 3F/3E
  2946 ;;		Unchanged: 0/0
  2947 ;; Data sizes:     COMRAM   BANK0   BANK1   BANK2   BANK3   BANK4   BANK5   BANK6   BANK7   BANK8   BANK9  BANK10  BANK1
      +1  BANK12  BANK13  BANK14  BANK15  BANK16  BANK17  BANK18  BANK19  BANK20  BANK21  BANK22  BANK23  BANK24  BANK25  BANK2
      +6  BANK27  BANK28  BANK29  BANK30  BANK31
  2948 ;;      Params:         0       0       0       0       0       0       0       0       0       0       0       0       
      +0       0       0       0       0       0       0       0       0       0       0       0       0       0       0       
      +0       0       0       0       0       0
  2949 ;;      Locals:         1       0       0       0       0       0       0       0       0       0       0       0       
      +0       0       0       0       0       0       0       0       0       0       0       0       0       0       0       
      +0       0       0       0       0       0
  2950 ;;      Temps:          0       0       0       0       0       0       0       0       0       0       0       0       
      +0       0       0       0       0       0       0       0       0       0       0       0       0       0       0       
      +0       0       0       0       0       0
  2951 ;;      Totals:         1       0       0       0       0       0       0       0       0       0       0       0       
      +0       0       0       0       0       0       0       0       0       0       0       0       0       0       0       
      +0       0       0       0       0       0
  2952 ;;Total ram usage:        1 bytes
  2953 ;; Hardware stack levels used:    1
  2954 ;; Hardware stack levels required when called:    4
  2955 ;; This function calls:
  2956 ;;		Nothing
  2957 ;; This function is called by:
  2958 ;;		_controller_work
  2959 ;; This function uses a non-reentrant model
  2960 ;;
  2961                           
  2962                           	psect	text14
  2963  0031B2                     __ptext14:
  2964                           	callstack 0
  2965  0031B2                     _ADCC_StartConversion:
  2966                           	callstack 25
  2967                           
  2968                           ;incstack = 0
  2969                           ;ADCC_StartConversion@channel stored from wreg
  2970  0031B2  6E06               	movwf	ADCC_StartConversion@channel^0,c
  2971                           
  2972                           ;mcc_generated_files/adcc.c: 113: void ADCC_StartConversion(adcc_channel_t channel);mcc_
      +                          generated_files/adcc.c: 114: {;mcc_generated_files/adcc.c: 116:     ADPCH = channel;
  2973  0031B4  0060  F01B  FEF1   	movff	ADCC_StartConversion@channel,16113	;volatile
  2974                           
  2975                           ;mcc_generated_files/adcc.c: 119:     ADCON0bits.ADON = 1;
  2976  0031BA  013E               	movlb	62	; () banked
  2977  0031BC  8FF8               	bsf	248,7,b	;volatile
  2978                           
  2979                           ; BSR set to: 62
  2980                           ;mcc_generated_files/adcc.c: 122:     ADCON0bits.ADGO = 1;
  2981  0031BE  81F8               	bsf	248,0,b	;volatile
  2982                           
  2983                           ; BSR set to: 62
  2984  0031C0  0012               	return		;funcret
  2985  0031C2                     __end_of_ADCC_StartConversion:
  2986                           	callstack 0
  2987                           
  2988 ;; *************** function _ADCC_IsConversionDone *****************
  2989 ;; Defined at:
  2990 ;;		line 125 in file "mcc_generated_files/adcc.c"
  2991 ;; Parameters:    Size  Location     Type
  2992 ;;		None
  2993 ;; Auto vars:     Size  Location     Type
  2994 ;;		None
  2995 ;; Return value:  Size  Location     Type
  2996 ;;                  1    wreg      _Bool 
  2997 ;; Registers used:
  2998 ;;		wreg
  2999 ;; Tracked objects:
  3000 ;;		On entry : 0/3E
  3001 ;;		On exit  : 3F/3E
  3002 ;;		Unchanged: 0/0
  3003 ;; Data sizes:     COMRAM   BANK0   BANK1   BANK2   BANK3   BANK4   BANK5   BANK6   BANK7   BANK8   BANK9  BANK10  BANK1
      +1  BANK12  BANK13  BANK14  BANK15  BANK16  BANK17  BANK18  BANK19  BANK20  BANK21  BANK22  BANK23  BANK24  BANK25  BANK2
      +6  BANK27  BANK28  BANK29  BANK30  BANK31
  3004 ;;      Params:         0       0       0       0       0       0       0       0       0       0       0       0       
      +0       0       0       0       0       0       0       0       0       0       0       0       0       0       0       
      +0       0       0       0       0       0
  3005 ;;      Locals:         0       0       0       0       0       0       0       0       0       0       0       0       
      +0       0       0       0       0       0       0       0       0       0       0       0       0       0       0       
      +0       0       0       0       0       0
  3006 ;;      Temps:          0       0       0       0       0       0       0       0       0       0       0       0       
      +0       0       0       0       0       0       0       0       0       0       0       0       0       0       0       
      +0       0       0       0       0       0
  3007 ;;      Totals:         0       0       0       0       0       0       0       0       0       0       0       0       
      +0       0       0       0       0       0       0       0       0       0       0       0       0       0       0       
      +0       0       0       0       0       0
  3008 ;;Total ram usage:        0 bytes
  3009 ;; Hardware stack levels used:    1
  3010 ;; Hardware stack levels required when called:    4
  3011 ;; This function calls:
  3012 ;;		Nothing
  3013 ;; This function is called by:
  3014 ;;		_controller_work
  3015 ;; This function uses a non-reentrant model
  3016 ;;
  3017                           
  3018                           	psect	text15
  3019  0031C2                     __ptext15:
  3020                           	callstack 0
  3021  0031C2                     _ADCC_IsConversionDone:
  3022                           	callstack 25
  3023                           
  3024                           ;mcc_generated_files/adcc.c: 128:     return ((unsigned char)(!ADCON0bits.ADGO));
  3025                           
  3026                           ; BSR set to: 62
  3027                           ;incstack = 0
  3028  0031C2  013E               	movlb	62	; () banked
  3029  0031C4  B1F8               	btfsc	248,0,b	;volatile
  3030  0031C6  D002               	goto	u2000
  3031  0031C8  0E01               	movlw	1
  3032  0031CA  0012               	return	
  3033  0031CC                     u2000:
  3034  0031CC  0E00               	movlw	0
  3035                           
  3036                           ; BSR set to: 62
  3037  0031CE  0012               	return		;funcret
  3038  0031D0                     __end_of_ADCC_IsConversionDone:
  3039                           	callstack 0
  3040                           
  3041 ;; *************** function _ADCC_GetConversionResult *****************
  3042 ;; Defined at:
  3043 ;;		line 131 in file "mcc_generated_files/adcc.c"
  3044 ;; Parameters:    Size  Location     Type
  3045 ;;		None
  3046 ;; Auto vars:     Size  Location     Type
  3047 ;;		None
  3048 ;; Return value:  Size  Location     Type
  3049 ;;                  2    5[COMRAM] unsigned short 
  3050 ;; Registers used:
  3051 ;;		wreg, status,2, status,0
  3052 ;; Tracked objects:
  3053 ;;		On entry : 3F/3E
  3054 ;;		On exit  : 3F/3E
  3055 ;;		Unchanged: 0/0
  3056 ;; Data sizes:     COMRAM   BANK0   BANK1   BANK2   BANK3   BANK4   BANK5   BANK6   BANK7   BANK8   BANK9  BANK10  BANK1
      +1  BANK12  BANK13  BANK14  BANK15  BANK16  BANK17  BANK18  BANK19  BANK20  BANK21  BANK22  BANK23  BANK24  BANK25  BANK2
      +6  BANK27  BANK28  BANK29  BANK30  BANK31
  3057 ;;      Params:         2       0       0       0       0       0       0       0       0       0       0       0       
      +0       0       0       0       0       0       0       0       0       0       0       0       0       0       0       
      +0       0       0       0       0       0
  3058 ;;      Locals:         0       0       0       0       0       0       0       0       0       0       0       0       
      +0       0       0       0       0       0       0       0       0       0       0       0       0       0       0       
      +0       0       0       0       0       0
  3059 ;;      Temps:          2       0       0       0       0       0       0       0       0       0       0       0       
      +0       0       0       0       0       0       0       0       0       0       0       0       0       0       0       
      +0       0       0       0       0       0
  3060 ;;      Totals:         4       0       0       0       0       0       0       0       0       0       0       0       
      +0       0       0       0       0       0       0       0       0       0       0       0       0       0       0       
      +0       0       0       0       0       0
  3061 ;;Total ram usage:        4 bytes
  3062 ;; Hardware stack levels used:    1
  3063 ;; Hardware stack levels required when called:    4
  3064 ;; This function calls:
  3065 ;;		Nothing
  3066 ;; This function is called by:
  3067 ;;		_controller_work
  3068 ;; This function uses a non-reentrant model
  3069 ;;
  3070                           
  3071                           	psect	text16
  3072  00319E                     __ptext16:
  3073                           	callstack 0
  3074  00319E                     _ADCC_GetConversionResult:
  3075                           	callstack 25
  3076                           
  3077                           ; BSR set to: 62
  3078                           ;mcc_generated_files/adcc.c: 134:     return ((adc_result_t)((ADRESH << 8) + ADRESL));
  3079                           
  3080                           ; BSR set to: 62
  3081                           ;incstack = 0
  3082  00319E  51F0               	movf	240,w,b	;volatile
  3083  0031A0  6E09               	movwf	(??_ADCC_GetConversionResult+1)^0,c
  3084  0031A2  6A08               	clrf	??_ADCC_GetConversionResult^0,c
  3085  0031A4  51EF               	movf	239,w,b	;volatile
  3086  0031A6  2408               	addwf	??_ADCC_GetConversionResult^0,w,c
  3087  0031A8  6E06               	movwf	?_ADCC_GetConversionResult^0,c
  3088  0031AA  0E00               	movlw	0
  3089  0031AC  2009               	addwfc	(??_ADCC_GetConversionResult+1)^0,w,c
  3090  0031AE  6E07               	movwf	(?_ADCC_GetConversionResult+1)^0,c
  3091                           
  3092                           ; BSR set to: 62
  3093  0031B0  0012               	return		;funcret
  3094  0031B2                     __end_of_ADCC_GetConversionResult:
  3095                           	callstack 0
  3096                           
  3097 ;; *************** function _WaitMs *****************
  3098 ;; Defined at:
  3099 ;;		line 30 in file "timer.c"
  3100 ;; Parameters:    Size  Location     Type
  3101 ;;  numMilliseco    2   10[COMRAM] const unsigned short 
  3102 ;; Auto vars:     Size  Location     Type
  3103 ;;		None
  3104 ;; Return value:  Size  Location     Type
  3105 ;;                  1    wreg      void 
  3106 ;; Registers used:
  3107 ;;		wreg, fsr2l, fsr2h, status,2, status,0, prodl, prodh, cstack
  3108 ;; Tracked objects:
  3109 ;;		On entry : 3F/39
  3110 ;;		On exit  : 0/0
  3111 ;;		Unchanged: 0/0
  3112 ;; Data sizes:     COMRAM   BANK0   BANK1   BANK2   BANK3   BANK4   BANK5   BANK6   BANK7   BANK8   BANK9  BANK10  BANK1
      +1  BANK12  BANK13  BANK14  BANK15  BANK16  BANK17  BANK18  BANK19  BANK20  BANK21  BANK22  BANK23  BANK24  BANK25  BANK2
      +6  BANK27  BANK28  BANK29  BANK30  BANK31
  3113 ;;      Params:         2       0       0       0       0       0       0       0       0       0       0       0       
      +0       0       0       0       0       0       0       0       0       0       0       0       0       0       0       
      +0       0       0       0       0       0
  3114 ;;      Locals:         0       0       0       0       0       0       0       0       0       0       0       0       
      +0       0       0       0       0       0       0       0       0       0       0       0       0       0       0       
      +0       0       0       0       0       0
  3115 ;;      Temps:          0       0       0       0       0       0       0       0       0       0       0       0       
      +0       0       0       0       0       0       0       0       0       0       0       0       0       0       0       
      +0       0       0       0       0       0
  3116 ;;      Totals:         2       0       0       0       0       0       0       0       0       0       0       0       
      +0       0       0       0       0       0       0       0       0       0       0       0       0       0       0       
      +0       0       0       0       0       0
  3117 ;;Total ram usage:        2 bytes
  3118 ;; Hardware stack levels used:    1
  3119 ;; Hardware stack levels required when called:    5
  3120 ;; This function calls:
  3121 ;;		_StartTimer
  3122 ;;		_TimerDone
  3123 ;; This function is called by:
  3124 ;;		_main
  3125 ;; This function uses a non-reentrant model
  3126 ;;
  3127                           
  3128                           	psect	text17
  3129  002FD8                     __ptext17:
  3130                           	callstack 0
  3131  002FD8                     _WaitMs:
  3132                           	callstack 25
  3133                           
  3134                           ; BSR set to: 57
  3135                           ;timer.c: 30: void WaitMs(const uint16_t numMilliseconds);timer.c: 31: {;timer.c: 32:  S
      +                          tartTimer(TMR_INTERNAL, numMilliseconds);
  3136                           
  3137                           ; BSR set to: 62
  3138                           ;incstack = 0
  3139  002FD8  C00B  F006         	movff	WaitMs@numMilliseconds,StartTimer@count
  3140  002FDC  C00C  F007         	movff	WaitMs@numMilliseconds+1,StartTimer@count+1
  3141  002FE0  0E00               	movlw	0
  3142  002FE2  ECD5  F017         	call	_StartTimer
  3143                           
  3144                           ;timer.c: 33:  while (!TimerDone(TMR_INTERNAL)) {
  3145  002FE6  D004               	goto	l3496
  3146  002FE8                     l953:
  3147                           
  3148                           ;timer.c: 34:   __nop();
  3149  002FE8  F000               	nop	
  3150                           
  3151                           ;timer.c: 35:   __nop();
  3152  002FEA  F000               	nop	
  3153                           
  3154                           ;timer.c: 36:   __nop();
  3155  002FEC  F000               	nop	
  3156                           
  3157                           ;timer.c: 37:   __nop();
  3158  002FEE  F000               	nop	
  3159  002FF0                     l3496:
  3160                           
  3161                           ;timer.c: 33:  while (!TimerDone(TMR_INTERNAL)) {
  3162  002FF0  0E00               	movlw	0
  3163  002FF2  EC90  F018         	call	_TimerDone
  3164  002FF6  0900               	iorlw	0
  3165  002FF8  A4D8               	btfss	status,2,c
  3166  002FFA  0012               	return	
  3167  002FFC  D7F5               	goto	l953
  3168  002FFE                     __end_of_WaitMs:
  3169                           	callstack 0
  3170                           
  3171 ;; *************** function _TimerDone *****************
  3172 ;; Defined at:
  3173 ;;		line 19 in file "timer.c"
  3174 ;; Parameters:    Size  Location     Type
  3175 ;;  timer           1    wreg     const unsigned char 
  3176 ;; Auto vars:     Size  Location     Type
  3177 ;;  timer           1    7[COMRAM] const unsigned char 
  3178 ;; Return value:  Size  Location     Type
  3179 ;;                  1    wreg      _Bool 
  3180 ;; Registers used:
  3181 ;;		wreg, fsr2l, fsr2h, status,2, status,0, prodl, prodh
  3182 ;; Tracked objects:
  3183 ;;		On entry : 0/1
  3184 ;;		On exit  : 0/0
  3185 ;;		Unchanged: 0/0
  3186 ;; Data sizes:     COMRAM   BANK0   BANK1   BANK2   BANK3   BANK4   BANK5   BANK6   BANK7   BANK8   BANK9  BANK10  BANK1
      +1  BANK12  BANK13  BANK14  BANK15  BANK16  BANK17  BANK18  BANK19  BANK20  BANK21  BANK22  BANK23  BANK24  BANK25  BANK2
      +6  BANK27  BANK28  BANK29  BANK30  BANK31
  3187 ;;      Params:         0       0       0       0       0       0       0       0       0       0       0       0       
      +0       0       0       0       0       0       0       0       0       0       0       0       0       0       0       
      +0       0       0       0       0       0
  3188 ;;      Locals:         1       0       0       0       0       0       0       0       0       0       0       0       
      +0       0       0       0       0       0       0       0       0       0       0       0       0       0       0       
      +0       0       0       0       0       0
  3189 ;;      Temps:          2       0       0       0       0       0       0       0       0       0       0       0       
      +0       0       0       0       0       0       0       0       0       0       0       0       0       0       0       
      +0       0       0       0       0       0
  3190 ;;      Totals:         3       0       0       0       0       0       0       0       0       0       0       0       
      +0       0       0       0       0       0       0       0       0       0       0       0       0       0       0       
      +0       0       0       0       0       0
  3191 ;;Total ram usage:        3 bytes
  3192 ;; Hardware stack levels used:    1
  3193 ;; Hardware stack levels required when called:    4
  3194 ;; This function calls:
  3195 ;;		Nothing
  3196 ;; This function is called by:
  3197 ;;		_main
  3198 ;;		_WaitMs
  3199 ;; This function uses a non-reentrant model
  3200 ;;
  3201                           
  3202                           	psect	text18
  3203  003120                     __ptext18:
  3204                           	callstack 0
  3205  003120                     _TimerDone:
  3206                           	callstack 25
  3207                           
  3208                           ;incstack = 0
  3209                           ;TimerDone@timer stored from wreg
  3210  003120  6E08               	movwf	TimerDone@timer^0,c
  3211                           
  3212                           ;timer.c: 19: _Bool TimerDone(const uint8_t timer);timer.c: 20: {;timer.c: 21:  if (tick
      +                          Count[timer] == 0) {
  3213  003122  5008               	movf	TimerDone@timer^0,w,c
  3214  003124  0D02               	mullw	2
  3215  003126  0EC0               	movlw	low _tickCount
  3216  003128  24F3               	addwf	243,w,c
  3217  00312A  6ED9               	movwf	fsr2l,c
  3218  00312C  0E01               	movlw	high _tickCount
  3219  00312E  20F4               	addwfc	prodh,w,c
  3220  003130  6EDA               	movwf	fsr2h,c
  3221  003132  50DE               	movf	postinc2,w,c
  3222  003134  10DE               	iorwf	postinc2,w,c
  3223  003136  A4D8               	btfss	status,2,c
  3224  003138  D002               	goto	l3470
  3225                           
  3226                           ;timer.c: 22:   return 1;
  3227  00313A  0E01               	movlw	1
  3228  00313C  0012               	return	
  3229  00313E                     l3470:
  3230                           
  3231                           ;timer.c: 24:  return 0;
  3232  00313E  0E00               	movlw	0
  3233  003140  0012               	return		;funcret
  3234  003142                     __end_of_TimerDone:
  3235                           	callstack 0
  3236                           
  3237 ;; *************** function _StartTimer *****************
  3238 ;; Defined at:
  3239 ;;		line 11 in file "timer.c"
  3240 ;; Parameters:    Size  Location     Type
  3241 ;;  timer           1    wreg     const unsigned char 
  3242 ;;  count           2    5[COMRAM] const unsigned short 
  3243 ;; Auto vars:     Size  Location     Type
  3244 ;;  timer           1    9[COMRAM] const unsigned char 
  3245 ;; Return value:  Size  Location     Type
  3246 ;;                  1    wreg      void 
  3247 ;; Registers used:
  3248 ;;		wreg, fsr2l, fsr2h, status,2, status,0, prodl, prodh
  3249 ;; Tracked objects:
  3250 ;;		On entry : 0/39
  3251 ;;		On exit  : 0/0
  3252 ;;		Unchanged: 0/0
  3253 ;; Data sizes:     COMRAM   BANK0   BANK1   BANK2   BANK3   BANK4   BANK5   BANK6   BANK7   BANK8   BANK9  BANK10  BANK1
      +1  BANK12  BANK13  BANK14  BANK15  BANK16  BANK17  BANK18  BANK19  BANK20  BANK21  BANK22  BANK23  BANK24  BANK25  BANK2
      +6  BANK27  BANK28  BANK29  BANK30  BANK31
  3254 ;;      Params:         2       0       0       0       0       0       0       0       0       0       0       0       
      +0       0       0       0       0       0       0       0       0       0       0       0       0       0       0       
      +0       0       0       0       0       0
  3255 ;;      Locals:         1       0       0       0       0       0       0       0       0       0       0       0       
      +0       0       0       0       0       0       0       0       0       0       0       0       0       0       0       
      +0       0       0       0       0       0
  3256 ;;      Temps:          2       0       0       0       0       0       0       0       0       0       0       0       
      +0       0       0       0       0       0       0       0       0       0       0       0       0       0       0       
      +0       0       0       0       0       0
  3257 ;;      Totals:         5       0       0       0       0       0       0       0       0       0       0       0       
      +0       0       0       0       0       0       0       0       0       0       0       0       0       0       0       
      +0       0       0       0       0       0
  3258 ;;Total ram usage:        5 bytes
  3259 ;; Hardware stack levels used:    1
  3260 ;; Hardware stack levels required when called:    4
  3261 ;; This function calls:
  3262 ;;		Nothing
  3263 ;; This function is called by:
  3264 ;;		_main
  3265 ;;		_WaitMs
  3266 ;; This function uses a non-reentrant model
  3267 ;;
  3268                           
  3269                           	psect	text19
  3270  002FAA                     __ptext19:
  3271                           	callstack 0
  3272  002FAA                     _StartTimer:
  3273                           	callstack 25
  3274                           
  3275                           ;incstack = 0
  3276                           ;StartTimer@timer stored from wreg
  3277  002FAA  6E0A               	movwf	StartTimer@timer^0,c
  3278                           
  3279                           ;timer.c: 11: void StartTimer(const uint8_t timer, const uint16_t count);timer.c: 12: {;
      +                          timer.c: 13:  tickCount[timer] = count << 1;
  3280  002FAC  C006  F008         	movff	StartTimer@count,??_StartTimer
  3281  002FB0  C007  F009         	movff	StartTimer@count+1,??_StartTimer+1
  3282  002FB4  90D8               	bcf	status,0,c
  3283  002FB6  3608               	rlcf	??_StartTimer^0,f,c
  3284  002FB8  3609               	rlcf	(??_StartTimer+1)^0,f,c
  3285  002FBA  500A               	movf	StartTimer@timer^0,w,c
  3286  002FBC  0D02               	mullw	2
  3287  002FBE  0EC0               	movlw	low _tickCount
  3288  002FC0  24F3               	addwf	243,w,c
  3289  002FC2  6ED9               	movwf	fsr2l,c
  3290  002FC4  0E01               	movlw	high _tickCount
  3291  002FC6  20F4               	addwfc	prodh,w,c
  3292  002FC8  6EDA               	movwf	fsr2h,c
  3293  002FCA  0060  F023  FFDE   	movff	??_StartTimer,postinc2
  3294  002FD0  0060  F027  FFDD   	movff	??_StartTimer+1,postdec2
  3295  002FD6  0012               	return		;funcret
  3296  002FD8                     __end_of_StartTimer:
  3297                           	callstack 0
  3298                           
  3299 ;; *************** function _TMR0_StartTimer *****************
  3300 ;; Defined at:
  3301 ;;		line 99 in file "mcc_generated_files/tmr0.c"
  3302 ;; Parameters:    Size  Location     Type
  3303 ;;		None
  3304 ;; Auto vars:     Size  Location     Type
  3305 ;;		None
  3306 ;; Return value:  Size  Location     Type
  3307 ;;                  1    wreg      void 
  3308 ;; Registers used:
  3309 ;;		None
  3310 ;; Tracked objects:
  3311 ;;		On entry : 3F/39
  3312 ;;		On exit  : 3F/39
  3313 ;;		Unchanged: 3E/0
  3314 ;; Data sizes:     COMRAM   BANK0   BANK1   BANK2   BANK3   BANK4   BANK5   BANK6   BANK7   BANK8   BANK9  BANK10  BANK1
      +1  BANK12  BANK13  BANK14  BANK15  BANK16  BANK17  BANK18  BANK19  BANK20  BANK21  BANK22  BANK23  BANK24  BANK25  BANK2
      +6  BANK27  BANK28  BANK29  BANK30  BANK31
  3315 ;;      Params:         0       0       0       0       0       0       0       0       0       0       0       0       
      +0       0       0       0       0       0       0       0       0       0       0       0       0       0       0       
      +0       0       0       0       0       0
  3316 ;;      Locals:         0       0       0       0       0       0       0       0       0       0       0       0       
      +0       0       0       0       0       0       0       0       0       0       0       0       0       0       0       
      +0       0       0       0       0       0
  3317 ;;      Temps:          0       0       0       0       0       0       0       0       0       0       0       0       
      +0       0       0       0       0       0       0       0       0       0       0       0       0       0       0       
      +0       0       0       0       0       0
  3318 ;;      Totals:         0       0       0       0       0       0       0       0       0       0       0       0       
      +0       0       0       0       0       0       0       0       0       0       0       0       0       0       0       
      +0       0       0       0       0       0
  3319 ;;Total ram usage:        0 bytes
  3320 ;; Hardware stack levels used:    1
  3321 ;; Hardware stack levels required when called:    4
  3322 ;; This function calls:
  3323 ;;		Nothing
  3324 ;; This function is called by:
  3325 ;;		_main
  3326 ;; This function uses a non-reentrant model
  3327 ;;
  3328                           
  3329                           	psect	text20
  3330  003288                     __ptext20:
  3331                           	callstack 0
  3332  003288                     _TMR0_StartTimer:
  3333                           	callstack 26
  3334                           
  3335                           ; BSR set to: 57
  3336                           ;mcc_generated_files/tmr0.c: 102:  T0CON0bits.T0EN = 1;
  3337                           
  3338                           ;incstack = 0
  3339  003288  8EB8               	bsf	184,7,c	;volatile
  3340                           
  3341                           ; BSR set to: 57
  3342  00328A  0012               	return		;funcret
  3343  00328C                     __end_of_TMR0_StartTimer:
  3344                           	callstack 0
  3345                           
  3346 ;; *************** function _SYSTEM_Initialize *****************
  3347 ;; Defined at:
  3348 ;;		line 50 in file "mcc_generated_files/mcc.c"
  3349 ;; Parameters:    Size  Location     Type
  3350 ;;		None
  3351 ;; Auto vars:     Size  Location     Type
  3352 ;;		None
  3353 ;; Return value:  Size  Location     Type
  3354 ;;                  1    wreg      void 
  3355 ;; Registers used:
  3356 ;;		wreg, status,2, status,0, cstack
  3357 ;; Tracked objects:
  3358 ;;		On entry : 0/0
  3359 ;;		On exit  : 3F/39
  3360 ;;		Unchanged: 0/0
  3361 ;; Data sizes:     COMRAM   BANK0   BANK1   BANK2   BANK3   BANK4   BANK5   BANK6   BANK7   BANK8   BANK9  BANK10  BANK1
      +1  BANK12  BANK13  BANK14  BANK15  BANK16  BANK17  BANK18  BANK19  BANK20  BANK21  BANK22  BANK23  BANK24  BANK25  BANK2
      +6  BANK27  BANK28  BANK29  BANK30  BANK31
  3362 ;;      Params:         0       0       0       0       0       0       0       0       0       0       0       0       
      +0       0       0       0       0       0       0       0       0       0       0       0       0       0       0       
      +0       0       0       0       0       0
  3363 ;;      Locals:         0       0       0       0       0       0       0       0       0       0       0       0       
      +0       0       0       0       0       0       0       0       0       0       0       0       0       0       0       
      +0       0       0       0       0       0
  3364 ;;      Temps:          0       0       0       0       0       0       0       0       0       0       0       0       
      +0       0       0       0       0       0       0       0       0       0       0       0       0       0       0       
      +0       0       0       0       0       0
  3365 ;;      Totals:         0       0       0       0       0       0       0       0       0       0       0       0       
      +0       0       0       0       0       0       0       0       0       0       0       0       0       0       0       
      +0       0       0       0       0       0
  3366 ;;Total ram usage:        0 bytes
  3367 ;; Hardware stack levels used:    1
  3368 ;; Hardware stack levels required when called:    6
  3369 ;; This function calls:
  3370 ;;		_ADCC_Initialize
  3371 ;;		_INTERRUPT_Initialize
  3372 ;;		_OSCILLATOR_Initialize
  3373 ;;		_PIN_MANAGER_Initialize
  3374 ;;		_PMD_Initialize
  3375 ;;		_TMR0_Initialize
  3376 ;;		_TMR5_Initialize
  3377 ;;		_UART1_Initialize
  3378 ;;		_UART2_Initialize
  3379 ;; This function is called by:
  3380 ;;		_main
  3381 ;; This function uses a non-reentrant model
  3382 ;;
  3383                           
  3384                           	psect	text21
  3385  002FFE                     __ptext21:
  3386                           	callstack 0
  3387  002FFE                     _SYSTEM_Initialize:
  3388                           	callstack 24
  3389                           
  3390                           ;mcc_generated_files/mcc.c: 52:     INTERRUPT_Initialize();
  3391                           
  3392                           ; BSR set to: 57
  3393                           ;incstack = 0
  3394  002FFE  ECF9  F016         	call	_INTERRUPT_Initialize	;wreg free
  3395                           
  3396                           ;mcc_generated_files/mcc.c: 53:     PMD_Initialize();
  3397  003002  ECA1  F018         	call	_PMD_Initialize	;wreg free
  3398                           
  3399                           ;mcc_generated_files/mcc.c: 54:     PIN_MANAGER_Initialize();
  3400  003006  EC29  F015         	call	_PIN_MANAGER_Initialize	;wreg free
  3401                           
  3402                           ;mcc_generated_files/mcc.c: 55:     OSCILLATOR_Initialize();
  3403  00300A  ECC1  F018         	call	_OSCILLATOR_Initialize	;wreg free
  3404                           
  3405                           ;mcc_generated_files/mcc.c: 56:     ADCC_Initialize();
  3406  00300E  EC80  F016         	call	_ADCC_Initialize	;wreg free
  3407                           
  3408                           ; BSR set to: 62
  3409                           ;mcc_generated_files/mcc.c: 57:     TMR5_Initialize();
  3410  003012  ECAE  F016         	call	_TMR5_Initialize	;wreg free
  3411                           
  3412                           ; BSR set to: 57
  3413                           ;mcc_generated_files/mcc.c: 58:     TMR0_Initialize();
  3414  003016  EC3B  F017         	call	_TMR0_Initialize	;wreg free
  3415                           
  3416                           ; BSR set to: 57
  3417                           ;mcc_generated_files/mcc.c: 59:     UART2_Initialize();
  3418  00301A  EC32  F014         	call	_UART2_Initialize	;wreg free
  3419                           
  3420                           ; BSR set to: 57
  3421                           ;mcc_generated_files/mcc.c: 60:     UART1_Initialize();
  3422  00301E  EC80  F013         	call	_UART1_Initialize	;wreg free
  3423                           
  3424                           ; BSR set to: 57
  3425  003022  0012               	return		;funcret
  3426  003024                     __end_of_SYSTEM_Initialize:
  3427                           	callstack 0
  3428                           
  3429 ;; *************** function _UART2_Initialize *****************
  3430 ;; Defined at:
  3431 ;;		line 87 in file "mcc_generated_files/uart2.c"
  3432 ;; Parameters:    Size  Location     Type
  3433 ;;		None
  3434 ;; Auto vars:     Size  Location     Type
  3435 ;;		None
  3436 ;; Return value:  Size  Location     Type
  3437 ;;                  1    wreg      void 
  3438 ;; Registers used:
  3439 ;;		wreg, status,2, status,0, cstack
  3440 ;; Tracked objects:
  3441 ;;		On entry : 3F/39
  3442 ;;		On exit  : 3F/39
  3443 ;;		Unchanged: 0/0
  3444 ;; Data sizes:     COMRAM   BANK0   BANK1   BANK2   BANK3   BANK4   BANK5   BANK6   BANK7   BANK8   BANK9  BANK10  BANK1
      +1  BANK12  BANK13  BANK14  BANK15  BANK16  BANK17  BANK18  BANK19  BANK20  BANK21  BANK22  BANK23  BANK24  BANK25  BANK2
      +6  BANK27  BANK28  BANK29  BANK30  BANK31
  3445 ;;      Params:         0       0       0       0       0       0       0       0       0       0       0       0       
      +0       0       0       0       0       0       0       0       0       0       0       0       0       0       0       
      +0       0       0       0       0       0
  3446 ;;      Locals:         0       0       0       0       0       0       0       0       0       0       0       0       
      +0       0       0       0       0       0       0       0       0       0       0       0       0       0       0       
      +0       0       0       0       0       0
  3447 ;;      Temps:          0       0       0       0       0       0       0       0       0       0       0       0       
      +0       0       0       0       0       0       0       0       0       0       0       0       0       0       0       
      +0       0       0       0       0       0
  3448 ;;      Totals:         0       0       0       0       0       0       0       0       0       0       0       0       
      +0       0       0       0       0       0       0       0       0       0       0       0       0       0       0       
      +0       0       0       0       0       0
  3449 ;;Total ram usage:        0 bytes
  3450 ;; Hardware stack levels used:    1
  3451 ;; Hardware stack levels required when called:    5
  3452 ;; This function calls:
  3453 ;;		_UART2_SetErrorHandler
  3454 ;;		_UART2_SetFramingErrorHandler
  3455 ;;		_UART2_SetOverrunErrorHandler
  3456 ;;		_UART2_SetRxInterruptHandler
  3457 ;;		_UART2_SetTxInterruptHandler
  3458 ;; This function is called by:
  3459 ;;		_SYSTEM_Initialize
  3460 ;; This function uses a non-reentrant model
  3461 ;;
  3462                           
  3463                           	psect	text22
  3464  002864                     __ptext22:
  3465                           	callstack 0
  3466  002864                     _UART2_Initialize:
  3467                           	callstack 24
  3468                           
  3469                           ; BSR set to: 57
  3470                           ;mcc_generated_files/uart2.c: 90:     PIE6bits.U2RXIE = 0;
  3471                           
  3472                           ; BSR set to: 57
  3473                           ;incstack = 0
  3474  002864  9596               	bcf	150,2,b	;volatile
  3475                           
  3476                           ; BSR set to: 57
  3477                           ;mcc_generated_files/uart2.c: 91:     UART2_SetRxInterruptHandler(UART2_Receive_ISR);
  3478  002866  0E0E               	movlw	low _UART2_Receive_ISR
  3479  002868  6E06               	movwf	UART2_SetRxInterruptHandler@InterruptHandler^0,c
  3480  00286A  0E29               	movlw	high _UART2_Receive_ISR
  3481  00286C  6E07               	movwf	(UART2_SetRxInterruptHandler@InterruptHandler+1)^0,c
  3482  00286E  0E00               	movlw	low (_UART2_Receive_ISR shr (0+16))
  3483  002870  6E08               	movwf	(UART2_SetRxInterruptHandler@InterruptHandler+2)^0,c
  3484  002872  ECEF  F018         	call	_UART2_SetRxInterruptHandler	;wreg free
  3485                           
  3486                           ; BSR set to: 57
  3487                           ;mcc_generated_files/uart2.c: 92:     PIE6bits.U2TXIE = 0;
  3488  002876  9796               	bcf	150,3,b	;volatile
  3489                           
  3490                           ;mcc_generated_files/uart2.c: 93:     UART2_SetTxInterruptHandler(UART2_Transmit_ISR);
  3491  002878  0E1C               	movlw	low _UART2_Transmit_ISR
  3492  00287A  6E06               	movwf	UART2_SetTxInterruptHandler@InterruptHandler^0,c
  3493  00287C  0E2F               	movlw	high _UART2_Transmit_ISR
  3494  00287E  6E07               	movwf	(UART2_SetTxInterruptHandler@InterruptHandler+1)^0,c
  3495  002880  0E00               	movlw	low (_UART2_Transmit_ISR shr (0+16))
  3496  002882  6E08               	movwf	(UART2_SetTxInterruptHandler@InterruptHandler+2)^0,c
  3497  002884  ECE8  F018         	call	_UART2_SetTxInterruptHandler	;wreg free
  3498                           
  3499                           ; BSR set to: 57
  3500                           ;mcc_generated_files/uart2.c: 98:     U2P1L = 0x00;
  3501  002888  0E00               	movlw	0
  3502  00288A  013D               	movlb	61	; () banked
  3503  00288C  6FD4               	movwf	212,b	;volatile
  3504                           
  3505                           ; BSR set to: 61
  3506                           ;mcc_generated_files/uart2.c: 101:     U2P2L = 0x00;
  3507  00288E  0E00               	movlw	0
  3508  002890  6FD6               	movwf	214,b	;volatile
  3509                           
  3510                           ; BSR set to: 61
  3511                           ;mcc_generated_files/uart2.c: 104:     U2P3L = 0x00;
  3512  002892  0E00               	movlw	0
  3513  002894  6FD8               	movwf	216,b	;volatile
  3514                           
  3515                           ; BSR set to: 61
  3516                           ;mcc_generated_files/uart2.c: 107:     U2CON0 = 0xB0;
  3517  002896  0EB0               	movlw	176
  3518  002898  6FDA               	movwf	218,b	;volatile
  3519                           
  3520                           ; BSR set to: 61
  3521                           ;mcc_generated_files/uart2.c: 110:     U2CON1 = 0x80;
  3522  00289A  0E80               	movlw	128
  3523  00289C  6FDB               	movwf	219,b	;volatile
  3524                           
  3525                           ; BSR set to: 61
  3526                           ;mcc_generated_files/uart2.c: 113:     U2CON2 = 0x00;
  3527  00289E  0E00               	movlw	0
  3528  0028A0  6FDC               	movwf	220,b	;volatile
  3529                           
  3530                           ; BSR set to: 61
  3531                           ;mcc_generated_files/uart2.c: 116:     U2BRGL = 0x82;
  3532  0028A2  0E82               	movlw	130
  3533  0028A4  6FDD               	movwf	221,b	;volatile
  3534                           
  3535                           ; BSR set to: 61
  3536                           ;mcc_generated_files/uart2.c: 119:     U2BRGH = 0x06;
  3537  0028A6  0E06               	movlw	6
  3538  0028A8  6FDE               	movwf	222,b	;volatile
  3539                           
  3540                           ; BSR set to: 61
  3541                           ;mcc_generated_files/uart2.c: 122:     U2FIFO = 0x00;
  3542  0028AA  0E00               	movlw	0
  3543  0028AC  6FDF               	movwf	223,b	;volatile
  3544                           
  3545                           ; BSR set to: 61
  3546                           ;mcc_generated_files/uart2.c: 125:     U2UIR = 0x00;
  3547  0028AE  0E00               	movlw	0
  3548  0028B0  6FE0               	movwf	224,b	;volatile
  3549                           
  3550                           ; BSR set to: 61
  3551                           ;mcc_generated_files/uart2.c: 128:     U2ERRIR = 0x00;
  3552  0028B2  0E00               	movlw	0
  3553  0028B4  6FE1               	movwf	225,b	;volatile
  3554                           
  3555                           ; BSR set to: 61
  3556                           ;mcc_generated_files/uart2.c: 131:     U2ERRIE = 0x00;
  3557  0028B6  0E00               	movlw	0
  3558  0028B8  6FE2               	movwf	226,b	;volatile
  3559                           
  3560                           ;mcc_generated_files/uart2.c: 134:     UART2_SetFramingErrorHandler(UART2_DefaultFraming
      +                          ErrorHandler);
  3561  0028BA  0E96               	movlw	low _UART2_DefaultFramingErrorHandler
  3562  0028BC  6E06               	movwf	UART2_SetFramingErrorHandler@interruptHandler^0,c
  3563  0028BE  0E32               	movlw	high _UART2_DefaultFramingErrorHandler
  3564  0028C0  6E07               	movwf	(UART2_SetFramingErrorHandler@interruptHandler+1)^0,c
  3565  0028C2  0E00               	movlw	low (_UART2_DefaultFramingErrorHandler shr (0+16))
  3566  0028C4  6E08               	movwf	(UART2_SetFramingErrorHandler@interruptHandler+2)^0,c
  3567  0028C6  ECFD  F018         	call	_UART2_SetFramingErrorHandler	;wreg free
  3568                           
  3569                           ;mcc_generated_files/uart2.c: 135:     UART2_SetOverrunErrorHandler(UART2_DefaultOverrun
      +                          ErrorHandler);
  3570  0028CA  0E94               	movlw	low _UART2_DefaultOverrunErrorHandler
  3571  0028CC  6E06               	movwf	UART2_SetOverrunErrorHandler@interruptHandler^0,c
  3572  0028CE  0E32               	movlw	high _UART2_DefaultOverrunErrorHandler
  3573  0028D0  6E07               	movwf	(UART2_SetOverrunErrorHandler@interruptHandler+1)^0,c
  3574  0028D2  0E00               	movlw	low (_UART2_DefaultOverrunErrorHandler shr (0+16))
  3575  0028D4  6E08               	movwf	(UART2_SetOverrunErrorHandler@interruptHandler+2)^0,c
  3576  0028D6  ECF6  F018         	call	_UART2_SetOverrunErrorHandler	;wreg free
  3577                           
  3578                           ;mcc_generated_files/uart2.c: 136:     UART2_SetErrorHandler(UART2_DefaultErrorHandler);
  3579  0028DA  0E78               	movlw	low _UART2_DefaultErrorHandler
  3580  0028DC  6E06               	movwf	UART2_SetErrorHandler@interruptHandler^0,c
  3581  0028DE  0E32               	movlw	high _UART2_DefaultErrorHandler
  3582  0028E0  6E07               	movwf	(UART2_SetErrorHandler@interruptHandler+1)^0,c
  3583  0028E2  0E00               	movlw	low (_UART2_DefaultErrorHandler shr (0+16))
  3584  0028E4  6E08               	movwf	(UART2_SetErrorHandler@interruptHandler+2)^0,c
  3585  0028E6  EC04  F019         	call	_UART2_SetErrorHandler	;wreg free
  3586                           
  3587                           ; BSR set to: 61
  3588                           ;mcc_generated_files/uart2.c: 138:     uart2RxLastError.status = 0;
  3589  0028EA  0E00               	movlw	0
  3590  0028EC  0100               	movlb	0	; () banked
  3591  0028EE  6F95               	movwf	_uart2RxLastError& (0+255),b	;volatile
  3592                           
  3593                           ; BSR set to: 0
  3594                           ;mcc_generated_files/uart2.c: 141:     uart2TxHead = 0;
  3595  0028F0  0E00               	movlw	0
  3596  0028F2  6F99               	movwf	_uart2TxHead& (0+255),b	;volatile
  3597                           
  3598                           ; BSR set to: 0
  3599                           ;mcc_generated_files/uart2.c: 142:     uart2TxTail = 0;
  3600  0028F4  0E00               	movlw	0
  3601  0028F6  6E57               	movwf	_uart2TxTail^0,c	;volatile
  3602                           
  3603                           ; BSR set to: 0
  3604                           ;mcc_generated_files/uart2.c: 143:     uart2TxBufferRemaining = sizeof(uart2TxBuffer);
  3605  0028F8  0E40               	movlw	64
  3606  0028FA  6F98               	movwf	_uart2TxBufferRemaining& (0+255),b	;volatile
  3607                           
  3608                           ; BSR set to: 0
  3609                           ;mcc_generated_files/uart2.c: 144:     uart2RxHead = 0;
  3610  0028FC  0E00               	movlw	0
  3611  0028FE  6E56               	movwf	_uart2RxHead^0,c	;volatile
  3612                           
  3613                           ; BSR set to: 0
  3614                           ;mcc_generated_files/uart2.c: 145:     uart2RxTail = 0;
  3615  002900  0E00               	movlw	0
  3616  002902  6F97               	movwf	_uart2RxTail& (0+255),b	;volatile
  3617                           
  3618                           ; BSR set to: 0
  3619                           ;mcc_generated_files/uart2.c: 146:     uart2RxCount = 0;
  3620  002904  0E00               	movlw	0
  3621  002906  6F96               	movwf	_uart2RxCount& (0+255),b	;volatile
  3622                           
  3623                           ; BSR set to: 0
  3624                           ;mcc_generated_files/uart2.c: 149:     PIE6bits.U2RXIE = 1;
  3625  002908  0139               	movlb	57	; () banked
  3626  00290A  8596               	bsf	150,2,b	;volatile
  3627                           
  3628                           ; BSR set to: 57
  3629  00290C  0012               	return		;funcret
  3630  00290E                     __end_of_UART2_Initialize:
  3631                           	callstack 0
  3632                           
  3633 ;; *************** function _UART2_SetTxInterruptHandler *****************
  3634 ;; Defined at:
  3635 ;;		line 316 in file "mcc_generated_files/uart2.c"
  3636 ;; Parameters:    Size  Location     Type
  3637 ;;  InterruptHan    3    5[COMRAM] PTR FTN()void 
  3638 ;;		 -> UART2_Transmit_ISR(1), 
  3639 ;; Auto vars:     Size  Location     Type
  3640 ;;		None
  3641 ;; Return value:  Size  Location     Type
  3642 ;;                  1    wreg      void 
  3643 ;; Registers used:
  3644 ;;		wreg, status,2, status,0
  3645 ;; Tracked objects:
  3646 ;;		On entry : 3F/39
  3647 ;;		On exit  : 3F/39
  3648 ;;		Unchanged: 3E/0
  3649 ;; Data sizes:     COMRAM   BANK0   BANK1   BANK2   BANK3   BANK4   BANK5   BANK6   BANK7   BANK8   BANK9  BANK10  BANK1
      +1  BANK12  BANK13  BANK14  BANK15  BANK16  BANK17  BANK18  BANK19  BANK20  BANK21  BANK22  BANK23  BANK24  BANK25  BANK2
      +6  BANK27  BANK28  BANK29  BANK30  BANK31
  3650 ;;      Params:         3       0       0       0       0       0       0       0       0       0       0       0       
      +0       0       0       0       0       0       0       0       0       0       0       0       0       0       0       
      +0       0       0       0       0       0
  3651 ;;      Locals:         0       0       0       0       0       0       0       0       0       0       0       0       
      +0       0       0       0       0       0       0       0       0       0       0       0       0       0       0       
      +0       0       0       0       0       0
  3652 ;;      Temps:          0       0       0       0       0       0       0       0       0       0       0       0       
      +0       0       0       0       0       0       0       0       0       0       0       0       0       0       0       
      +0       0       0       0       0       0
  3653 ;;      Totals:         3       0       0       0       0       0       0       0       0       0       0       0       
      +0       0       0       0       0       0       0       0       0       0       0       0       0       0       0       
      +0       0       0       0       0       0
  3654 ;;Total ram usage:        3 bytes
  3655 ;; Hardware stack levels used:    1
  3656 ;; Hardware stack levels required when called:    4
  3657 ;; This function calls:
  3658 ;;		Nothing
  3659 ;; This function is called by:
  3660 ;;		_UART2_Initialize
  3661 ;; This function uses a non-reentrant model
  3662 ;;
  3663                           
  3664                           	psect	text23
  3665  0031D0                     __ptext23:
  3666                           	callstack 0
  3667  0031D0                     _UART2_SetTxInterruptHandler:
  3668                           	callstack 24
  3669                           
  3670                           ; BSR set to: 57
  3671                           ;mcc_generated_files/uart2.c: 317:     UART2_TxInterruptHandler = InterruptHandler;
  3672                           
  3673                           ; BSR set to: 57
  3674                           ;incstack = 0
  3675  0031D0  C006  F07E         	movff	UART2_SetTxInterruptHandler@InterruptHandler,_UART2_TxInterruptHandler
  3676  0031D4  C007  F07F         	movff	UART2_SetTxInterruptHandler@InterruptHandler+1,_UART2_TxInterruptHandler+1
  3677  0031D8  C008  F080         	movff	UART2_SetTxInterruptHandler@InterruptHandler+2,_UART2_TxInterruptHandler+2
  3678                           
  3679                           ; BSR set to: 57
  3680  0031DC  0012               	return		;funcret
  3681  0031DE                     __end_of_UART2_SetTxInterruptHandler:
  3682                           	callstack 0
  3683                           
  3684 ;; *************** function _UART2_SetRxInterruptHandler *****************
  3685 ;; Defined at:
  3686 ;;		line 312 in file "mcc_generated_files/uart2.c"
  3687 ;; Parameters:    Size  Location     Type
  3688 ;;  InterruptHan    3    5[COMRAM] PTR FTN()void 
  3689 ;;		 -> UART2_Receive_ISR(1), 
  3690 ;; Auto vars:     Size  Location     Type
  3691 ;;		None
  3692 ;; Return value:  Size  Location     Type
  3693 ;;                  1    wreg      void 
  3694 ;; Registers used:
  3695 ;;		wreg, status,2, status,0
  3696 ;; Tracked objects:
  3697 ;;		On entry : 3F/39
  3698 ;;		On exit  : 3F/39
  3699 ;;		Unchanged: 3E/0
  3700 ;; Data sizes:     COMRAM   BANK0   BANK1   BANK2   BANK3   BANK4   BANK5   BANK6   BANK7   BANK8   BANK9  BANK10  BANK1
      +1  BANK12  BANK13  BANK14  BANK15  BANK16  BANK17  BANK18  BANK19  BANK20  BANK21  BANK22  BANK23  BANK24  BANK25  BANK2
      +6  BANK27  BANK28  BANK29  BANK30  BANK31
  3701 ;;      Params:         3       0       0       0       0       0       0       0       0       0       0       0       
      +0       0       0       0       0       0       0       0       0       0       0       0       0       0       0       
      +0       0       0       0       0       0
  3702 ;;      Locals:         0       0       0       0       0       0       0       0       0       0       0       0       
      +0       0       0       0       0       0       0       0       0       0       0       0       0       0       0       
      +0       0       0       0       0       0
  3703 ;;      Temps:          0       0       0       0       0       0       0       0       0       0       0       0       
      +0       0       0       0       0       0       0       0       0       0       0       0       0       0       0       
      +0       0       0       0       0       0
  3704 ;;      Totals:         3       0       0       0       0       0       0       0       0       0       0       0       
      +0       0       0       0       0       0       0       0       0       0       0       0       0       0       0       
      +0       0       0       0       0       0
  3705 ;;Total ram usage:        3 bytes
  3706 ;; Hardware stack levels used:    1
  3707 ;; Hardware stack levels required when called:    4
  3708 ;; This function calls:
  3709 ;;		Nothing
  3710 ;; This function is called by:
  3711 ;;		_UART2_Initialize
  3712 ;; This function uses a non-reentrant model
  3713 ;;
  3714                           
  3715                           	psect	text24
  3716  0031DE                     __ptext24:
  3717                           	callstack 0
  3718  0031DE                     _UART2_SetRxInterruptHandler:
  3719                           	callstack 24
  3720                           
  3721                           ; BSR set to: 57
  3722                           ;mcc_generated_files/uart2.c: 313:     UART2_RxInterruptHandler = InterruptHandler;
  3723                           
  3724                           ; BSR set to: 57
  3725                           ;incstack = 0
  3726  0031DE  C006  F081         	movff	UART2_SetRxInterruptHandler@InterruptHandler,_UART2_RxInterruptHandler
  3727  0031E2  C007  F082         	movff	UART2_SetRxInterruptHandler@InterruptHandler+1,_UART2_RxInterruptHandler+1
  3728  0031E6  C008  F083         	movff	UART2_SetRxInterruptHandler@InterruptHandler+2,_UART2_RxInterruptHandler+2
  3729                           
  3730                           ; BSR set to: 57
  3731  0031EA  0012               	return		;funcret
  3732  0031EC                     __end_of_UART2_SetRxInterruptHandler:
  3733                           	callstack 0
  3734                           
  3735 ;; *************** function _UART2_SetOverrunErrorHandler *****************
  3736 ;; Defined at:
  3737 ;;		line 302 in file "mcc_generated_files/uart2.c"
  3738 ;; Parameters:    Size  Location     Type
  3739 ;;  interruptHan    3    5[COMRAM] PTR FTN()void 
  3740 ;;		 -> UART2_DefaultOverrunErrorHandler(1), 
  3741 ;; Auto vars:     Size  Location     Type
  3742 ;;		None
  3743 ;; Return value:  Size  Location     Type
  3744 ;;                  1    wreg      void 
  3745 ;; Registers used:
  3746 ;;		wreg, status,2, status,0
  3747 ;; Tracked objects:
  3748 ;;		On entry : 3F/3D
  3749 ;;		On exit  : 3F/3D
  3750 ;;		Unchanged: 3E/0
  3751 ;; Data sizes:     COMRAM   BANK0   BANK1   BANK2   BANK3   BANK4   BANK5   BANK6   BANK7   BANK8   BANK9  BANK10  BANK1
      +1  BANK12  BANK13  BANK14  BANK15  BANK16  BANK17  BANK18  BANK19  BANK20  BANK21  BANK22  BANK23  BANK24  BANK25  BANK2
      +6  BANK27  BANK28  BANK29  BANK30  BANK31
  3752 ;;      Params:         3       0       0       0       0       0       0       0       0       0       0       0       
      +0       0       0       0       0       0       0       0       0       0       0       0       0       0       0       
      +0       0       0       0       0       0
  3753 ;;      Locals:         0       0       0       0       0       0       0       0       0       0       0       0       
      +0       0       0       0       0       0       0       0       0       0       0       0       0       0       0       
      +0       0       0       0       0       0
  3754 ;;      Temps:          0       0       0       0       0       0       0       0       0       0       0       0       
      +0       0       0       0       0       0       0       0       0       0       0       0       0       0       0       
      +0       0       0       0       0       0
  3755 ;;      Totals:         3       0       0       0       0       0       0       0       0       0       0       0       
      +0       0       0       0       0       0       0       0       0       0       0       0       0       0       0       
      +0       0       0       0       0       0
  3756 ;;Total ram usage:        3 bytes
  3757 ;; Hardware stack levels used:    1
  3758 ;; Hardware stack levels required when called:    4
  3759 ;; This function calls:
  3760 ;;		Nothing
  3761 ;; This function is called by:
  3762 ;;		_UART2_Initialize
  3763 ;; This function uses a non-reentrant model
  3764 ;;
  3765                           
  3766                           	psect	text25
  3767  0031EC                     __ptext25:
  3768                           	callstack 0
  3769  0031EC                     _UART2_SetOverrunErrorHandler:
  3770                           	callstack 24
  3771                           
  3772                           ; BSR set to: 61
  3773                           ;mcc_generated_files/uart2.c: 303:     UART2_OverrunErrorHandler = interruptHandler;
  3774                           
  3775                           ; BSR set to: 57
  3776                           ;incstack = 0
  3777  0031EC  C006  F06C         	movff	UART2_SetOverrunErrorHandler@interruptHandler,_UART2_OverrunErrorHandler
  3778  0031F0  C007  F06D         	movff	UART2_SetOverrunErrorHandler@interruptHandler+1,_UART2_OverrunErrorHandler+1
  3779  0031F4  C008  F06E         	movff	UART2_SetOverrunErrorHandler@interruptHandler+2,_UART2_OverrunErrorHandler+2
  3780                           
  3781                           ; BSR set to: 61
  3782  0031F8  0012               	return		;funcret
  3783  0031FA                     __end_of_UART2_SetOverrunErrorHandler:
  3784                           	callstack 0
  3785                           
  3786 ;; *************** function _UART2_SetFramingErrorHandler *****************
  3787 ;; Defined at:
  3788 ;;		line 298 in file "mcc_generated_files/uart2.c"
  3789 ;; Parameters:    Size  Location     Type
  3790 ;;  interruptHan    3    5[COMRAM] PTR FTN()void 
  3791 ;;		 -> UART2_DefaultFramingErrorHandler(1), 
  3792 ;; Auto vars:     Size  Location     Type
  3793 ;;		None
  3794 ;; Return value:  Size  Location     Type
  3795 ;;                  1    wreg      void 
  3796 ;; Registers used:
  3797 ;;		wreg, status,2, status,0
  3798 ;; Tracked objects:
  3799 ;;		On entry : 3F/3D
  3800 ;;		On exit  : 3F/3D
  3801 ;;		Unchanged: 3E/0
  3802 ;; Data sizes:     COMRAM   BANK0   BANK1   BANK2   BANK3   BANK4   BANK5   BANK6   BANK7   BANK8   BANK9  BANK10  BANK1
      +1  BANK12  BANK13  BANK14  BANK15  BANK16  BANK17  BANK18  BANK19  BANK20  BANK21  BANK22  BANK23  BANK24  BANK25  BANK2
      +6  BANK27  BANK28  BANK29  BANK30  BANK31
  3803 ;;      Params:         3       0       0       0       0       0       0       0       0       0       0       0       
      +0       0       0       0       0       0       0       0       0       0       0       0       0       0       0       
      +0       0       0       0       0       0
  3804 ;;      Locals:         0       0       0       0       0       0       0       0       0       0       0       0       
      +0       0       0       0       0       0       0       0       0       0       0       0       0       0       0       
      +0       0       0       0       0       0
  3805 ;;      Temps:          0       0       0       0       0       0       0       0       0       0       0       0       
      +0       0       0       0       0       0       0       0       0       0       0       0       0       0       0       
      +0       0       0       0       0       0
  3806 ;;      Totals:         3       0       0       0       0       0       0       0       0       0       0       0       
      +0       0       0       0       0       0       0       0       0       0       0       0       0       0       0       
      +0       0       0       0       0       0
  3807 ;;Total ram usage:        3 bytes
  3808 ;; Hardware stack levels used:    1
  3809 ;; Hardware stack levels required when called:    4
  3810 ;; This function calls:
  3811 ;;		Nothing
  3812 ;; This function is called by:
  3813 ;;		_UART2_Initialize
  3814 ;; This function uses a non-reentrant model
  3815 ;;
  3816                           
  3817                           	psect	text26
  3818  0031FA                     __ptext26:
  3819                           	callstack 0
  3820  0031FA                     _UART2_SetFramingErrorHandler:
  3821                           	callstack 24
  3822                           
  3823                           ; BSR set to: 61
  3824                           ;mcc_generated_files/uart2.c: 299:     UART2_FramingErrorHandler = interruptHandler;
  3825                           
  3826                           ; BSR set to: 61
  3827                           ;incstack = 0
  3828  0031FA  C006  F06F         	movff	UART2_SetFramingErrorHandler@interruptHandler,_UART2_FramingErrorHandler
  3829  0031FE  C007  F070         	movff	UART2_SetFramingErrorHandler@interruptHandler+1,_UART2_FramingErrorHandler+1
  3830  003202  C008  F071         	movff	UART2_SetFramingErrorHandler@interruptHandler+2,_UART2_FramingErrorHandler+2
  3831                           
  3832                           ; BSR set to: 61
  3833  003206  0012               	return		;funcret
  3834  003208                     __end_of_UART2_SetFramingErrorHandler:
  3835                           	callstack 0
  3836                           
  3837 ;; *************** function _UART2_SetErrorHandler *****************
  3838 ;; Defined at:
  3839 ;;		line 306 in file "mcc_generated_files/uart2.c"
  3840 ;; Parameters:    Size  Location     Type
  3841 ;;  interruptHan    3    5[COMRAM] PTR FTN()void 
  3842 ;;		 -> UART2_DefaultErrorHandler(1), 
  3843 ;; Auto vars:     Size  Location     Type
  3844 ;;		None
  3845 ;; Return value:  Size  Location     Type
  3846 ;;                  1    wreg      void 
  3847 ;; Registers used:
  3848 ;;		wreg, status,2, status,0
  3849 ;; Tracked objects:
  3850 ;;		On entry : 3F/3D
  3851 ;;		On exit  : 3F/3D
  3852 ;;		Unchanged: 3E/0
  3853 ;; Data sizes:     COMRAM   BANK0   BANK1   BANK2   BANK3   BANK4   BANK5   BANK6   BANK7   BANK8   BANK9  BANK10  BANK1
      +1  BANK12  BANK13  BANK14  BANK15  BANK16  BANK17  BANK18  BANK19  BANK20  BANK21  BANK22  BANK23  BANK24  BANK25  BANK2
      +6  BANK27  BANK28  BANK29  BANK30  BANK31
  3854 ;;      Params:         3       0       0       0       0       0       0       0       0       0       0       0       
      +0       0       0       0       0       0       0       0       0       0       0       0       0       0       0       
      +0       0       0       0       0       0
  3855 ;;      Locals:         0       0       0       0       0       0       0       0       0       0       0       0       
      +0       0       0       0       0       0       0       0       0       0       0       0       0       0       0       
      +0       0       0       0       0       0
  3856 ;;      Temps:          0       0       0       0       0       0       0       0       0       0       0       0       
      +0       0       0       0       0       0       0       0       0       0       0       0       0       0       0       
      +0       0       0       0       0       0
  3857 ;;      Totals:         3       0       0       0       0       0       0       0       0       0       0       0       
      +0       0       0       0       0       0       0       0       0       0       0       0       0       0       0       
      +0       0       0       0       0       0
  3858 ;;Total ram usage:        3 bytes
  3859 ;; Hardware stack levels used:    1
  3860 ;; Hardware stack levels required when called:    4
  3861 ;; This function calls:
  3862 ;;		Nothing
  3863 ;; This function is called by:
  3864 ;;		_UART2_Initialize
  3865 ;; This function uses a non-reentrant model
  3866 ;;
  3867                           
  3868                           	psect	text27
  3869  003208                     __ptext27:
  3870                           	callstack 0
  3871  003208                     _UART2_SetErrorHandler:
  3872                           	callstack 24
  3873                           
  3874                           ; BSR set to: 61
  3875                           ;mcc_generated_files/uart2.c: 307:     UART2_ErrorHandler = interruptHandler;
  3876                           
  3877                           ; BSR set to: 61
  3878                           ;incstack = 0
  3879  003208  C006  F069         	movff	UART2_SetErrorHandler@interruptHandler,_UART2_ErrorHandler
  3880  00320C  C007  F06A         	movff	UART2_SetErrorHandler@interruptHandler+1,_UART2_ErrorHandler+1
  3881  003210  C008  F06B         	movff	UART2_SetErrorHandler@interruptHandler+2,_UART2_ErrorHandler+2
  3882                           
  3883                           ; BSR set to: 61
  3884  003214  0012               	return		;funcret
  3885  003216                     __end_of_UART2_SetErrorHandler:
  3886                           	callstack 0
  3887                           
  3888 ;; *************** function _UART1_Initialize *****************
  3889 ;; Defined at:
  3890 ;;		line 87 in file "mcc_generated_files/uart1.c"
  3891 ;; Parameters:    Size  Location     Type
  3892 ;;		None
  3893 ;; Auto vars:     Size  Location     Type
  3894 ;;		None
  3895 ;; Return value:  Size  Location     Type
  3896 ;;                  1    wreg      void 
  3897 ;; Registers used:
  3898 ;;		wreg, status,2, status,0, cstack
  3899 ;; Tracked objects:
  3900 ;;		On entry : 3F/39
  3901 ;;		On exit  : 3F/39
  3902 ;;		Unchanged: 0/0
  3903 ;; Data sizes:     COMRAM   BANK0   BANK1   BANK2   BANK3   BANK4   BANK5   BANK6   BANK7   BANK8   BANK9  BANK10  BANK1
      +1  BANK12  BANK13  BANK14  BANK15  BANK16  BANK17  BANK18  BANK19  BANK20  BANK21  BANK22  BANK23  BANK24  BANK25  BANK2
      +6  BANK27  BANK28  BANK29  BANK30  BANK31
  3904 ;;      Params:         0       0       0       0       0       0       0       0       0       0       0       0       
      +0       0       0       0       0       0       0       0       0       0       0       0       0       0       0       
      +0       0       0       0       0       0
  3905 ;;      Locals:         0       0       0       0       0       0       0       0       0       0       0       0       
      +0       0       0       0       0       0       0       0       0       0       0       0       0       0       0       
      +0       0       0       0       0       0
  3906 ;;      Temps:          0       0       0       0       0       0       0       0       0       0       0       0       
      +0       0       0       0       0       0       0       0       0       0       0       0       0       0       0       
      +0       0       0       0       0       0
  3907 ;;      Totals:         0       0       0       0       0       0       0       0       0       0       0       0       
      +0       0       0       0       0       0       0       0       0       0       0       0       0       0       0       
      +0       0       0       0       0       0
  3908 ;;Total ram usage:        0 bytes
  3909 ;; Hardware stack levels used:    1
  3910 ;; Hardware stack levels required when called:    5
  3911 ;; This function calls:
  3912 ;;		_UART1_SetErrorHandler
  3913 ;;		_UART1_SetFramingErrorHandler
  3914 ;;		_UART1_SetOverrunErrorHandler
  3915 ;;		_UART1_SetRxInterruptHandler
  3916 ;;		_UART1_SetTxInterruptHandler
  3917 ;; This function is called by:
  3918 ;;		_SYSTEM_Initialize
  3919 ;; This function uses a non-reentrant model
  3920 ;;
  3921                           
  3922                           	psect	text28
  3923  002700                     __ptext28:
  3924                           	callstack 0
  3925  002700                     _UART1_Initialize:
  3926                           	callstack 24
  3927                           
  3928                           ; BSR set to: 57
  3929                           ;mcc_generated_files/uart1.c: 90:     PIE3bits.U1RXIE = 0;
  3930                           
  3931                           ; BSR set to: 61
  3932                           ;incstack = 0
  3933  002700  9793               	bcf	147,3,b	;volatile
  3934                           
  3935                           ; BSR set to: 57
  3936                           ;mcc_generated_files/uart1.c: 91:     UART1_SetRxInterruptHandler(UART1_Receive_ISR);
  3937  002702  0EB0               	movlw	low _UART1_Receive_ISR
  3938  002704  6E06               	movwf	UART1_SetRxInterruptHandler@InterruptHandler^0,c
  3939  002706  0E29               	movlw	high _UART1_Receive_ISR
  3940  002708  6E07               	movwf	(UART1_SetRxInterruptHandler@InterruptHandler+1)^0,c
  3941  00270A  0E00               	movlw	low (_UART1_Receive_ISR shr (0+16))
  3942  00270C  6E08               	movwf	(UART1_SetRxInterruptHandler@InterruptHandler+2)^0,c
  3943  00270E  EC12  F019         	call	_UART1_SetRxInterruptHandler	;wreg free
  3944                           
  3945                           ; BSR set to: 57
  3946                           ;mcc_generated_files/uart1.c: 92:     PIE3bits.U1TXIE = 0;
  3947  002712  9993               	bcf	147,4,b	;volatile
  3948                           
  3949                           ;mcc_generated_files/uart1.c: 93:     UART1_SetTxInterruptHandler(UART1_Transmit_ISR);
  3950  002714  0E4C               	movlw	low _UART1_Transmit_ISR
  3951  002716  6E06               	movwf	UART1_SetTxInterruptHandler@InterruptHandler^0,c
  3952  002718  0E2F               	movlw	high _UART1_Transmit_ISR
  3953  00271A  6E07               	movwf	(UART1_SetTxInterruptHandler@InterruptHandler+1)^0,c
  3954  00271C  0E00               	movlw	low (_UART1_Transmit_ISR shr (0+16))
  3955  00271E  6E08               	movwf	(UART1_SetTxInterruptHandler@InterruptHandler+2)^0,c
  3956  002720  EC0B  F019         	call	_UART1_SetTxInterruptHandler	;wreg free
  3957                           
  3958                           ; BSR set to: 57
  3959                           ;mcc_generated_files/uart1.c: 98:     U1P1L = 0x00;
  3960  002724  0E00               	movlw	0
  3961  002726  013D               	movlb	61	; () banked
  3962  002728  6FEC               	movwf	236,b	;volatile
  3963                           
  3964                           ; BSR set to: 61
  3965                           ;mcc_generated_files/uart1.c: 101:     U1P1H = 0x00;
  3966  00272A  0E00               	movlw	0
  3967  00272C  6FED               	movwf	237,b	;volatile
  3968                           
  3969                           ; BSR set to: 61
  3970                           ;mcc_generated_files/uart1.c: 104:     U1P2L = 0x00;
  3971  00272E  0E00               	movlw	0
  3972  002730  6FEE               	movwf	238,b	;volatile
  3973                           
  3974                           ; BSR set to: 61
  3975                           ;mcc_generated_files/uart1.c: 107:     U1P2H = 0x00;
  3976  002732  0E00               	movlw	0
  3977  002734  6FEF               	movwf	239,b	;volatile
  3978                           
  3979                           ; BSR set to: 61
  3980                           ;mcc_generated_files/uart1.c: 110:     U1P3L = 0x00;
  3981  002736  0E00               	movlw	0
  3982  002738  6FF0               	movwf	240,b	;volatile
  3983                           
  3984                           ; BSR set to: 61
  3985                           ;mcc_generated_files/uart1.c: 113:     U1P3H = 0x00;
  3986  00273A  0E00               	movlw	0
  3987  00273C  6FF1               	movwf	241,b	;volatile
  3988                           
  3989                           ; BSR set to: 61
  3990                           ;mcc_generated_files/uart1.c: 116:     U1CON0 = 0xB0;
  3991  00273E  0EB0               	movlw	176
  3992  002740  6FF2               	movwf	242,b	;volatile
  3993                           
  3994                           ; BSR set to: 61
  3995                           ;mcc_generated_files/uart1.c: 119:     U1CON1 = 0x80;
  3996  002742  0E80               	movlw	128
  3997  002744  6FF3               	movwf	243,b	;volatile
  3998                           
  3999                           ; BSR set to: 61
  4000                           ;mcc_generated_files/uart1.c: 122:     U1CON2 = 0x00;
  4001  002746  0E00               	movlw	0
  4002  002748  6FF4               	movwf	244,b	;volatile
  4003                           
  4004                           ; BSR set to: 61
  4005                           ;mcc_generated_files/uart1.c: 125:     U1BRGL = 0x82;
  4006  00274A  0E82               	movlw	130
  4007  00274C  6FF5               	movwf	245,b	;volatile
  4008                           
  4009                           ; BSR set to: 61
  4010                           ;mcc_generated_files/uart1.c: 128:     U1BRGH = 0x06;
  4011  00274E  0E06               	movlw	6
  4012  002750  6FF6               	movwf	246,b	;volatile
  4013                           
  4014                           ; BSR set to: 61
  4015                           ;mcc_generated_files/uart1.c: 131:     U1FIFO = 0x00;
  4016  002752  0E00               	movlw	0
  4017  002754  6FF7               	movwf	247,b	;volatile
  4018                           
  4019                           ; BSR set to: 61
  4020                           ;mcc_generated_files/uart1.c: 134:     U1UIR = 0x00;
  4021  002756  0E00               	movlw	0
  4022  002758  6FF8               	movwf	248,b	;volatile
  4023                           
  4024                           ; BSR set to: 61
  4025                           ;mcc_generated_files/uart1.c: 137:     U1ERRIR = 0x00;
  4026  00275A  0E00               	movlw	0
  4027  00275C  6FF9               	movwf	249,b	;volatile
  4028                           
  4029                           ; BSR set to: 61
  4030                           ;mcc_generated_files/uart1.c: 140:     U1ERRIE = 0x00;
  4031  00275E  0E00               	movlw	0
  4032  002760  6FFA               	movwf	250,b	;volatile
  4033                           
  4034                           ; BSR set to: 61
  4035                           ;mcc_generated_files/uart1.c: 143:     UART1_SetFramingErrorHandler(UART1_DefaultFraming
      +                          ErrorHandler);
  4036  002762  0E9A               	movlw	low _UART1_DefaultFramingErrorHandler
  4037  002764  6E06               	movwf	UART1_SetFramingErrorHandler@interruptHandler^0,c
  4038  002766  0E32               	movlw	high _UART1_DefaultFramingErrorHandler
  4039  002768  6E07               	movwf	(UART1_SetFramingErrorHandler@interruptHandler+1)^0,c
  4040  00276A  0E00               	movlw	low (_UART1_DefaultFramingErrorHandler shr (0+16))
  4041  00276C  6E08               	movwf	(UART1_SetFramingErrorHandler@interruptHandler+2)^0,c
  4042  00276E  EC20  F019         	call	_UART1_SetFramingErrorHandler	;wreg free
  4043                           
  4044                           ; BSR set to: 61
  4045                           ;mcc_generated_files/uart1.c: 144:     UART1_SetOverrunErrorHandler(UART1_DefaultOverrun
      +                          ErrorHandler);
  4046  002772  0E98               	movlw	low _UART1_DefaultOverrunErrorHandler
  4047  002774  6E06               	movwf	UART1_SetOverrunErrorHandler@interruptHandler^0,c
  4048  002776  0E32               	movlw	high _UART1_DefaultOverrunErrorHandler
  4049  002778  6E07               	movwf	(UART1_SetOverrunErrorHandler@interruptHandler+1)^0,c
  4050  00277A  0E00               	movlw	low (_UART1_DefaultOverrunErrorHandler shr (0+16))
  4051  00277C  6E08               	movwf	(UART1_SetOverrunErrorHandler@interruptHandler+2)^0,c
  4052  00277E  EC19  F019         	call	_UART1_SetOverrunErrorHandler	;wreg free
  4053                           
  4054                           ; BSR set to: 61
  4055                           ;mcc_generated_files/uart1.c: 145:     UART1_SetErrorHandler(UART1_DefaultErrorHandler);
  4056  002782  0E7E               	movlw	low _UART1_DefaultErrorHandler
  4057  002784  6E06               	movwf	UART1_SetErrorHandler@interruptHandler^0,c
  4058  002786  0E32               	movlw	high _UART1_DefaultErrorHandler
  4059  002788  6E07               	movwf	(UART1_SetErrorHandler@interruptHandler+1)^0,c
  4060  00278A  0E00               	movlw	low (_UART1_DefaultErrorHandler shr (0+16))
  4061  00278C  6E08               	movwf	(UART1_SetErrorHandler@interruptHandler+2)^0,c
  4062  00278E  EC27  F019         	call	_UART1_SetErrorHandler	;wreg free
  4063                           
  4064                           ;mcc_generated_files/uart1.c: 147:     uart1RxLastError.status = 0;
  4065  002792  0E00               	movlw	0
  4066  002794  0100               	movlb	0	; () banked
  4067  002796  6F90               	movwf	_uart1RxLastError& (0+255),b	;volatile
  4068                           
  4069                           ;mcc_generated_files/uart1.c: 150:     uart1TxHead = 0;
  4070  002798  0E00               	movlw	0
  4071  00279A  6F94               	movwf	_uart1TxHead& (0+255),b	;volatile
  4072                           
  4073                           ;mcc_generated_files/uart1.c: 151:     uart1TxTail = 0;
  4074  00279C  0E00               	movlw	0
  4075  00279E  6E55               	movwf	_uart1TxTail^0,c	;volatile
  4076                           
  4077                           ;mcc_generated_files/uart1.c: 152:     uart1TxBufferRemaining = sizeof(uart1TxBuffer);
  4078  0027A0  0E40               	movlw	64
  4079  0027A2  6F93               	movwf	_uart1TxBufferRemaining& (0+255),b	;volatile
  4080                           
  4081                           ;mcc_generated_files/uart1.c: 153:     uart1RxHead = 0;
  4082  0027A4  0E00               	movlw	0
  4083  0027A6  6E54               	movwf	_uart1RxHead^0,c	;volatile
  4084                           
  4085                           ;mcc_generated_files/uart1.c: 154:     uart1RxTail = 0;
  4086  0027A8  0E00               	movlw	0
  4087  0027AA  6F92               	movwf	_uart1RxTail& (0+255),b	;volatile
  4088                           
  4089                           ;mcc_generated_files/uart1.c: 155:     uart1RxCount = 0;
  4090  0027AC  0E00               	movlw	0
  4091  0027AE  6F91               	movwf	_uart1RxCount& (0+255),b	;volatile
  4092                           
  4093                           ; BSR set to: 0
  4094                           ;mcc_generated_files/uart1.c: 158:     PIE3bits.U1RXIE = 1;
  4095  0027B0  0139               	movlb	57	; () banked
  4096  0027B2  8793               	bsf	147,3,b	;volatile
  4097                           
  4098                           ; BSR set to: 57
  4099  0027B4  0012               	return		;funcret
  4100  0027B6                     __end_of_UART1_Initialize:
  4101                           	callstack 0
  4102                           
  4103 ;; *************** function _UART1_SetTxInterruptHandler *****************
  4104 ;; Defined at:
  4105 ;;		line 325 in file "mcc_generated_files/uart1.c"
  4106 ;; Parameters:    Size  Location     Type
  4107 ;;  InterruptHan    3    5[COMRAM] PTR FTN()void 
  4108 ;;		 -> UART1_Transmit_ISR(1), 
  4109 ;; Auto vars:     Size  Location     Type
  4110 ;;		None
  4111 ;; Return value:  Size  Location     Type
  4112 ;;                  1    wreg      void 
  4113 ;; Registers used:
  4114 ;;		wreg, status,2, status,0
  4115 ;; Tracked objects:
  4116 ;;		On entry : 3F/39
  4117 ;;		On exit  : 3F/39
  4118 ;;		Unchanged: 3E/0
  4119 ;; Data sizes:     COMRAM   BANK0   BANK1   BANK2   BANK3   BANK4   BANK5   BANK6   BANK7   BANK8   BANK9  BANK10  BANK1
      +1  BANK12  BANK13  BANK14  BANK15  BANK16  BANK17  BANK18  BANK19  BANK20  BANK21  BANK22  BANK23  BANK24  BANK25  BANK2
      +6  BANK27  BANK28  BANK29  BANK30  BANK31
  4120 ;;      Params:         3       0       0       0       0       0       0       0       0       0       0       0       
      +0       0       0       0       0       0       0       0       0       0       0       0       0       0       0       
      +0       0       0       0       0       0
  4121 ;;      Locals:         0       0       0       0       0       0       0       0       0       0       0       0       
      +0       0       0       0       0       0       0       0       0       0       0       0       0       0       0       
      +0       0       0       0       0       0
  4122 ;;      Temps:          0       0       0       0       0       0       0       0       0       0       0       0       
      +0       0       0       0       0       0       0       0       0       0       0       0       0       0       0       
      +0       0       0       0       0       0
  4123 ;;      Totals:         3       0       0       0       0       0       0       0       0       0       0       0       
      +0       0       0       0       0       0       0       0       0       0       0       0       0       0       0       
      +0       0       0       0       0       0
  4124 ;;Total ram usage:        3 bytes
  4125 ;; Hardware stack levels used:    1
  4126 ;; Hardware stack levels required when called:    4
  4127 ;; This function calls:
  4128 ;;		Nothing
  4129 ;; This function is called by:
  4130 ;;		_UART1_Initialize
  4131 ;; This function uses a non-reentrant model
  4132 ;;
  4133                           
  4134                           	psect	text29
  4135  003216                     __ptext29:
  4136                           	callstack 0
  4137  003216                     _UART1_SetTxInterruptHandler:
  4138                           	callstack 24
  4139                           
  4140                           ; BSR set to: 57
  4141                           ;mcc_generated_files/uart1.c: 326:     UART1_TxInterruptHandler = InterruptHandler;
  4142                           
  4143                           ; BSR set to: 57
  4144                           ;incstack = 0
  4145  003216  C006  F078         	movff	UART1_SetTxInterruptHandler@InterruptHandler,_UART1_TxInterruptHandler
  4146  00321A  C007  F079         	movff	UART1_SetTxInterruptHandler@InterruptHandler+1,_UART1_TxInterruptHandler+1
  4147  00321E  C008  F07A         	movff	UART1_SetTxInterruptHandler@InterruptHandler+2,_UART1_TxInterruptHandler+2
  4148                           
  4149                           ; BSR set to: 57
  4150  003222  0012               	return		;funcret
  4151  003224                     __end_of_UART1_SetTxInterruptHandler:
  4152                           	callstack 0
  4153                           
  4154 ;; *************** function _UART1_SetRxInterruptHandler *****************
  4155 ;; Defined at:
  4156 ;;		line 321 in file "mcc_generated_files/uart1.c"
  4157 ;; Parameters:    Size  Location     Type
  4158 ;;  InterruptHan    3    5[COMRAM] PTR FTN()void 
  4159 ;;		 -> UART1_Receive_ISR(1), 
  4160 ;; Auto vars:     Size  Location     Type
  4161 ;;		None
  4162 ;; Return value:  Size  Location     Type
  4163 ;;                  1    wreg      void 
  4164 ;; Registers used:
  4165 ;;		wreg, status,2, status,0
  4166 ;; Tracked objects:
  4167 ;;		On entry : 3F/39
  4168 ;;		On exit  : 3F/39
  4169 ;;		Unchanged: 3E/0
  4170 ;; Data sizes:     COMRAM   BANK0   BANK1   BANK2   BANK3   BANK4   BANK5   BANK6   BANK7   BANK8   BANK9  BANK10  BANK1
      +1  BANK12  BANK13  BANK14  BANK15  BANK16  BANK17  BANK18  BANK19  BANK20  BANK21  BANK22  BANK23  BANK24  BANK25  BANK2
      +6  BANK27  BANK28  BANK29  BANK30  BANK31
  4171 ;;      Params:         3       0       0       0       0       0       0       0       0       0       0       0       
      +0       0       0       0       0       0       0       0       0       0       0       0       0       0       0       
      +0       0       0       0       0       0
  4172 ;;      Locals:         0       0       0       0       0       0       0       0       0       0       0       0       
      +0       0       0       0       0       0       0       0       0       0       0       0       0       0       0       
      +0       0       0       0       0       0
  4173 ;;      Temps:          0       0       0       0       0       0       0       0       0       0       0       0       
      +0       0       0       0       0       0       0       0       0       0       0       0       0       0       0       
      +0       0       0       0       0       0
  4174 ;;      Totals:         3       0       0       0       0       0       0       0       0       0       0       0       
      +0       0       0       0       0       0       0       0       0       0       0       0       0       0       0       
      +0       0       0       0       0       0
  4175 ;;Total ram usage:        3 bytes
  4176 ;; Hardware stack levels used:    1
  4177 ;; Hardware stack levels required when called:    4
  4178 ;; This function calls:
  4179 ;;		Nothing
  4180 ;; This function is called by:
  4181 ;;		_UART1_Initialize
  4182 ;; This function uses a non-reentrant model
  4183 ;;
  4184                           
  4185                           	psect	text30
  4186  003224                     __ptext30:
  4187                           	callstack 0
  4188  003224                     _UART1_SetRxInterruptHandler:
  4189                           	callstack 24
  4190                           
  4191                           ; BSR set to: 57
  4192                           ;mcc_generated_files/uart1.c: 322:     UART1_RxInterruptHandler = InterruptHandler;
  4193                           
  4194                           ; BSR set to: 57
  4195                           ;incstack = 0
  4196  003224  C006  F07B         	movff	UART1_SetRxInterruptHandler@InterruptHandler,_UART1_RxInterruptHandler
  4197  003228  C007  F07C         	movff	UART1_SetRxInterruptHandler@InterruptHandler+1,_UART1_RxInterruptHandler+1
  4198  00322C  C008  F07D         	movff	UART1_SetRxInterruptHandler@InterruptHandler+2,_UART1_RxInterruptHandler+2
  4199                           
  4200                           ; BSR set to: 57
  4201  003230  0012               	return		;funcret
  4202  003232                     __end_of_UART1_SetRxInterruptHandler:
  4203                           	callstack 0
  4204                           
  4205 ;; *************** function _UART1_SetOverrunErrorHandler *****************
  4206 ;; Defined at:
  4207 ;;		line 311 in file "mcc_generated_files/uart1.c"
  4208 ;; Parameters:    Size  Location     Type
  4209 ;;  interruptHan    3    5[COMRAM] PTR FTN()void 
  4210 ;;		 -> UART1_DefaultOverrunErrorHandler(1), 
  4211 ;; Auto vars:     Size  Location     Type
  4212 ;;		None
  4213 ;; Return value:  Size  Location     Type
  4214 ;;                  1    wreg      void 
  4215 ;; Registers used:
  4216 ;;		wreg, status,2, status,0
  4217 ;; Tracked objects:
  4218 ;;		On entry : 3F/3D
  4219 ;;		On exit  : 3F/3D
  4220 ;;		Unchanged: 3E/0
  4221 ;; Data sizes:     COMRAM   BANK0   BANK1   BANK2   BANK3   BANK4   BANK5   BANK6   BANK7   BANK8   BANK9  BANK10  BANK1
      +1  BANK12  BANK13  BANK14  BANK15  BANK16  BANK17  BANK18  BANK19  BANK20  BANK21  BANK22  BANK23  BANK24  BANK25  BANK2
      +6  BANK27  BANK28  BANK29  BANK30  BANK31
  4222 ;;      Params:         3       0       0       0       0       0       0       0       0       0       0       0       
      +0       0       0       0       0       0       0       0       0       0       0       0       0       0       0       
      +0       0       0       0       0       0
  4223 ;;      Locals:         0       0       0       0       0       0       0       0       0       0       0       0       
      +0       0       0       0       0       0       0       0       0       0       0       0       0       0       0       
      +0       0       0       0       0       0
  4224 ;;      Temps:          0       0       0       0       0       0       0       0       0       0       0       0       
      +0       0       0       0       0       0       0       0       0       0       0       0       0       0       0       
      +0       0       0       0       0       0
  4225 ;;      Totals:         3       0       0       0       0       0       0       0       0       0       0       0       
      +0       0       0       0       0       0       0       0       0       0       0       0       0       0       0       
      +0       0       0       0       0       0
  4226 ;;Total ram usage:        3 bytes
  4227 ;; Hardware stack levels used:    1
  4228 ;; Hardware stack levels required when called:    4
  4229 ;; This function calls:
  4230 ;;		Nothing
  4231 ;; This function is called by:
  4232 ;;		_UART1_Initialize
  4233 ;; This function uses a non-reentrant model
  4234 ;;
  4235                           
  4236                           	psect	text31
  4237  003232                     __ptext31:
  4238                           	callstack 0
  4239  003232                     _UART1_SetOverrunErrorHandler:
  4240                           	callstack 24
  4241                           
  4242                           ; BSR set to: 61
  4243                           ;mcc_generated_files/uart1.c: 312:     UART1_OverrunErrorHandler = interruptHandler;
  4244                           
  4245                           ; BSR set to: 57
  4246                           ;incstack = 0
  4247  003232  C006  F063         	movff	UART1_SetOverrunErrorHandler@interruptHandler,_UART1_OverrunErrorHandler
  4248  003236  C007  F064         	movff	UART1_SetOverrunErrorHandler@interruptHandler+1,_UART1_OverrunErrorHandler+1
  4249  00323A  C008  F065         	movff	UART1_SetOverrunErrorHandler@interruptHandler+2,_UART1_OverrunErrorHandler+2
  4250                           
  4251                           ; BSR set to: 61
  4252  00323E  0012               	return		;funcret
  4253  003240                     __end_of_UART1_SetOverrunErrorHandler:
  4254                           	callstack 0
  4255                           
  4256 ;; *************** function _UART1_SetFramingErrorHandler *****************
  4257 ;; Defined at:
  4258 ;;		line 307 in file "mcc_generated_files/uart1.c"
  4259 ;; Parameters:    Size  Location     Type
  4260 ;;  interruptHan    3    5[COMRAM] PTR FTN()void 
  4261 ;;		 -> UART1_DefaultFramingErrorHandler(1), 
  4262 ;; Auto vars:     Size  Location     Type
  4263 ;;		None
  4264 ;; Return value:  Size  Location     Type
  4265 ;;                  1    wreg      void 
  4266 ;; Registers used:
  4267 ;;		wreg, status,2, status,0
  4268 ;; Tracked objects:
  4269 ;;		On entry : 3F/3D
  4270 ;;		On exit  : 3F/3D
  4271 ;;		Unchanged: 3E/0
  4272 ;; Data sizes:     COMRAM   BANK0   BANK1   BANK2   BANK3   BANK4   BANK5   BANK6   BANK7   BANK8   BANK9  BANK10  BANK1
      +1  BANK12  BANK13  BANK14  BANK15  BANK16  BANK17  BANK18  BANK19  BANK20  BANK21  BANK22  BANK23  BANK24  BANK25  BANK2
      +6  BANK27  BANK28  BANK29  BANK30  BANK31
  4273 ;;      Params:         3       0       0       0       0       0       0       0       0       0       0       0       
      +0       0       0       0       0       0       0       0       0       0       0       0       0       0       0       
      +0       0       0       0       0       0
  4274 ;;      Locals:         0       0       0       0       0       0       0       0       0       0       0       0       
      +0       0       0       0       0       0       0       0       0       0       0       0       0       0       0       
      +0       0       0       0       0       0
  4275 ;;      Temps:          0       0       0       0       0       0       0       0       0       0       0       0       
      +0       0       0       0       0       0       0       0       0       0       0       0       0       0       0       
      +0       0       0       0       0       0
  4276 ;;      Totals:         3       0       0       0       0       0       0       0       0       0       0       0       
      +0       0       0       0       0       0       0       0       0       0       0       0       0       0       0       
      +0       0       0       0       0       0
  4277 ;;Total ram usage:        3 bytes
  4278 ;; Hardware stack levels used:    1
  4279 ;; Hardware stack levels required when called:    4
  4280 ;; This function calls:
  4281 ;;		Nothing
  4282 ;; This function is called by:
  4283 ;;		_UART1_Initialize
  4284 ;; This function uses a non-reentrant model
  4285 ;;
  4286                           
  4287                           	psect	text32
  4288  003240                     __ptext32:
  4289                           	callstack 0
  4290  003240                     _UART1_SetFramingErrorHandler:
  4291                           	callstack 24
  4292                           
  4293                           ; BSR set to: 61
  4294                           ;mcc_generated_files/uart1.c: 308:     UART1_FramingErrorHandler = interruptHandler;
  4295                           
  4296                           ; BSR set to: 61
  4297                           ;incstack = 0
  4298  003240  C006  F066         	movff	UART1_SetFramingErrorHandler@interruptHandler,_UART1_FramingErrorHandler
  4299  003244  C007  F067         	movff	UART1_SetFramingErrorHandler@interruptHandler+1,_UART1_FramingErrorHandler+1
  4300  003248  C008  F068         	movff	UART1_SetFramingErrorHandler@interruptHandler+2,_UART1_FramingErrorHandler+2
  4301                           
  4302                           ; BSR set to: 61
  4303  00324C  0012               	return		;funcret
  4304  00324E                     __end_of_UART1_SetFramingErrorHandler:
  4305                           	callstack 0
  4306                           
  4307 ;; *************** function _UART1_SetErrorHandler *****************
  4308 ;; Defined at:
  4309 ;;		line 315 in file "mcc_generated_files/uart1.c"
  4310 ;; Parameters:    Size  Location     Type
  4311 ;;  interruptHan    3    5[COMRAM] PTR FTN()void 
  4312 ;;		 -> UART1_DefaultErrorHandler(1), 
  4313 ;; Auto vars:     Size  Location     Type
  4314 ;;		None
  4315 ;; Return value:  Size  Location     Type
  4316 ;;                  1    wreg      void 
  4317 ;; Registers used:
  4318 ;;		wreg, status,2, status,0
  4319 ;; Tracked objects:
  4320 ;;		On entry : 3F/3D
  4321 ;;		On exit  : 3F/3D
  4322 ;;		Unchanged: 3E/0
  4323 ;; Data sizes:     COMRAM   BANK0   BANK1   BANK2   BANK3   BANK4   BANK5   BANK6   BANK7   BANK8   BANK9  BANK10  BANK1
      +1  BANK12  BANK13  BANK14  BANK15  BANK16  BANK17  BANK18  BANK19  BANK20  BANK21  BANK22  BANK23  BANK24  BANK25  BANK2
      +6  BANK27  BANK28  BANK29  BANK30  BANK31
  4324 ;;      Params:         3       0       0       0       0       0       0       0       0       0       0       0       
      +0       0       0       0       0       0       0       0       0       0       0       0       0       0       0       
      +0       0       0       0       0       0
  4325 ;;      Locals:         0       0       0       0       0       0       0       0       0       0       0       0       
      +0       0       0       0       0       0       0       0       0       0       0       0       0       0       0       
      +0       0       0       0       0       0
  4326 ;;      Temps:          0       0       0       0       0       0       0       0       0       0       0       0       
      +0       0       0       0       0       0       0       0       0       0       0       0       0       0       0       
      +0       0       0       0       0       0
  4327 ;;      Totals:         3       0       0       0       0       0       0       0       0       0       0       0       
      +0       0       0       0       0       0       0       0       0       0       0       0       0       0       0       
      +0       0       0       0       0       0
  4328 ;;Total ram usage:        3 bytes
  4329 ;; Hardware stack levels used:    1
  4330 ;; Hardware stack levels required when called:    4
  4331 ;; This function calls:
  4332 ;;		Nothing
  4333 ;; This function is called by:
  4334 ;;		_UART1_Initialize
  4335 ;; This function uses a non-reentrant model
  4336 ;;
  4337                           
  4338                           	psect	text33
  4339  00324E                     __ptext33:
  4340                           	callstack 0
  4341  00324E                     _UART1_SetErrorHandler:
  4342                           	callstack 24
  4343                           
  4344                           ; BSR set to: 61
  4345                           ;mcc_generated_files/uart1.c: 316:     UART1_ErrorHandler = interruptHandler;
  4346                           
  4347                           ; BSR set to: 61
  4348                           ;incstack = 0
  4349  00324E  C006  F060         	movff	UART1_SetErrorHandler@interruptHandler,_UART1_ErrorHandler
  4350  003252  C007  F061         	movff	UART1_SetErrorHandler@interruptHandler+1,_UART1_ErrorHandler+1
  4351  003256  C008  F062         	movff	UART1_SetErrorHandler@interruptHandler+2,_UART1_ErrorHandler+2
  4352                           
  4353                           ; BSR set to: 61
  4354  00325A  0012               	return		;funcret
  4355  00325C                     __end_of_UART1_SetErrorHandler:
  4356                           	callstack 0
  4357                           
  4358 ;; *************** function _TMR5_Initialize *****************
  4359 ;; Defined at:
  4360 ;;		line 67 in file "mcc_generated_files/tmr5.c"
  4361 ;; Parameters:    Size  Location     Type
  4362 ;;		None
  4363 ;; Auto vars:     Size  Location     Type
  4364 ;;		None
  4365 ;; Return value:  Size  Location     Type
  4366 ;;                  1    wreg      void 
  4367 ;; Registers used:
  4368 ;;		wreg, status,2, status,0, cstack
  4369 ;; Tracked objects:
  4370 ;;		On entry : 3F/3E
  4371 ;;		On exit  : 3F/39
  4372 ;;		Unchanged: 0/0
  4373 ;; Data sizes:     COMRAM   BANK0   BANK1   BANK2   BANK3   BANK4   BANK5   BANK6   BANK7   BANK8   BANK9  BANK10  BANK1
      +1  BANK12  BANK13  BANK14  BANK15  BANK16  BANK17  BANK18  BANK19  BANK20  BANK21  BANK22  BANK23  BANK24  BANK25  BANK2
      +6  BANK27  BANK28  BANK29  BANK30  BANK31
  4374 ;;      Params:         0       0       0       0       0       0       0       0       0       0       0       0       
      +0       0       0       0       0       0       0       0       0       0       0       0       0       0       0       
      +0       0       0       0       0       0
  4375 ;;      Locals:         0       0       0       0       0       0       0       0       0       0       0       0       
      +0       0       0       0       0       0       0       0       0       0       0       0       0       0       0       
      +0       0       0       0       0       0
  4376 ;;      Temps:          2       0       0       0       0       0       0       0       0       0       0       0       
      +0       0       0       0       0       0       0       0       0       0       0       0       0       0       0       
      +0       0       0       0       0       0
  4377 ;;      Totals:         2       0       0       0       0       0       0       0       0       0       0       0       
      +0       0       0       0       0       0       0       0       0       0       0       0       0       0       0       
      +0       0       0       0       0       0
  4378 ;;Total ram usage:        2 bytes
  4379 ;; Hardware stack levels used:    1
  4380 ;; Hardware stack levels required when called:    5
  4381 ;; This function calls:
  4382 ;;		_TMR5_SetInterruptHandler
  4383 ;; This function is called by:
  4384 ;;		_SYSTEM_Initialize
  4385 ;; This function uses a non-reentrant model
  4386 ;;
  4387                           
  4388                           	psect	text34
  4389  002D5C                     __ptext34:
  4390                           	callstack 0
  4391  002D5C                     _TMR5_Initialize:
  4392                           	callstack 24
  4393                           
  4394                           ; BSR set to: 62
  4395                           ;mcc_generated_files/tmr5.c: 72:     T5GCON = 0x00;
  4396                           
  4397                           ; BSR set to: 61
  4398                           ;incstack = 0
  4399  002D5C  0E00               	movlw	0
  4400  002D5E  6E9B               	movwf	155,c	;volatile
  4401                           
  4402                           ;mcc_generated_files/tmr5.c: 75:     T5GATE = 0x00;
  4403  002D60  0E00               	movlw	0
  4404  002D62  6E9C               	movwf	156,c	;volatile
  4405                           
  4406                           ;mcc_generated_files/tmr5.c: 78:     T5CLK = 0x06;
  4407  002D64  0E06               	movlw	6
  4408  002D66  6E9D               	movwf	157,c	;volatile
  4409                           
  4410                           ;mcc_generated_files/tmr5.c: 81:     TMR5H = 0x85;
  4411  002D68  0E85               	movlw	133
  4412  002D6A  6E99               	movwf	153,c	;volatile
  4413                           
  4414                           ;mcc_generated_files/tmr5.c: 84:     TMR5L = 0xEE;
  4415  002D6C  0EEE               	movlw	238
  4416  002D6E  6E98               	movwf	152,c	;volatile
  4417                           
  4418                           ; BSR set to: 62
  4419                           ;mcc_generated_files/tmr5.c: 87:     PIR8bits.TMR5IF = 0;
  4420  002D70  0139               	movlb	57	; () banked
  4421  002D72  9DA8               	bcf	168,6,b	;volatile
  4422                           
  4423                           ; BSR set to: 57
  4424                           ;mcc_generated_files/tmr5.c: 90:     timer5ReloadVal=(uint16_t)((TMR5H << 8) | TMR5L);
  4425  002D74  5098               	movf	152,w,c	;volatile
  4426  002D76  006F FE64  F009    	movff	16281,??_TMR5_Initialize	;volatile
  4427  002D7C  6A0A               	clrf	(??_TMR5_Initialize+1)^0,c
  4428  002D7E  C009  F00A         	movff	??_TMR5_Initialize,??_TMR5_Initialize+1
  4429  002D82  6A09               	clrf	??_TMR5_Initialize^0,c
  4430  002D84  1009               	iorwf	??_TMR5_Initialize^0,w,c
  4431  002D86  0100               	movlb	0	; () banked
  4432  002D88  6F8C               	movwf	_timer5ReloadVal& (0+255),b	;volatile
  4433  002D8A  500A               	movf	(??_TMR5_Initialize+1)^0,w,c
  4434  002D8C  6F8D               	movwf	(_timer5ReloadVal+1)& (0+255),b	;volatile
  4435                           
  4436                           ; BSR set to: 0
  4437                           ;mcc_generated_files/tmr5.c: 93:     PIE8bits.TMR5IE = 1;
  4438  002D8E  0139               	movlb	57	; () banked
  4439  002D90  8D98               	bsf	152,6,b	;volatile
  4440                           
  4441                           ; BSR set to: 57
  4442                           ;mcc_generated_files/tmr5.c: 96:     TMR5_SetInterruptHandler(TMR5_DefaultInterruptHandl
      +                          er);
  4443  002D92  0E64               	movlw	low _TMR5_DefaultInterruptHandler
  4444  002D94  6E06               	movwf	TMR5_SetInterruptHandler@InterruptHandler^0,c
  4445  002D96  0E31               	movlw	high _TMR5_DefaultInterruptHandler
  4446  002D98  6E07               	movwf	(TMR5_SetInterruptHandler@InterruptHandler+1)^0,c
  4447  002D9A  0E00               	movlw	low (_TMR5_DefaultInterruptHandler shr (0+16))
  4448  002D9C  6E08               	movwf	(TMR5_SetInterruptHandler@InterruptHandler+2)^0,c
  4449  002D9E  EC2E  F019         	call	_TMR5_SetInterruptHandler	;wreg free
  4450                           
  4451                           ; BSR set to: 57
  4452                           ;mcc_generated_files/tmr5.c: 99:     T5CON = 0x01;
  4453  002DA2  0E01               	movlw	1
  4454  002DA4  6E9A               	movwf	154,c	;volatile
  4455                           
  4456                           ; BSR set to: 57
  4457  002DA6  0012               	return		;funcret
  4458  002DA8                     __end_of_TMR5_Initialize:
  4459                           	callstack 0
  4460                           
  4461 ;; *************** function _TMR5_SetInterruptHandler *****************
  4462 ;; Defined at:
  4463 ;;		line 181 in file "mcc_generated_files/tmr5.c"
  4464 ;; Parameters:    Size  Location     Type
  4465 ;;  InterruptHan    3    5[COMRAM] PTR FTN()void 
  4466 ;;		 -> TMR5_DefaultInterruptHandler(1), 
  4467 ;; Auto vars:     Size  Location     Type
  4468 ;;		None
  4469 ;; Return value:  Size  Location     Type
  4470 ;;                  1    wreg      void 
  4471 ;; Registers used:
  4472 ;;		wreg, status,2, status,0
  4473 ;; Tracked objects:
  4474 ;;		On entry : 3F/39
  4475 ;;		On exit  : 3F/39
  4476 ;;		Unchanged: 3E/0
  4477 ;; Data sizes:     COMRAM   BANK0   BANK1   BANK2   BANK3   BANK4   BANK5   BANK6   BANK7   BANK8   BANK9  BANK10  BANK1
      +1  BANK12  BANK13  BANK14  BANK15  BANK16  BANK17  BANK18  BANK19  BANK20  BANK21  BANK22  BANK23  BANK24  BANK25  BANK2
      +6  BANK27  BANK28  BANK29  BANK30  BANK31
  4478 ;;      Params:         3       0       0       0       0       0       0       0       0       0       0       0       
      +0       0       0       0       0       0       0       0       0       0       0       0       0       0       0       
      +0       0       0       0       0       0
  4479 ;;      Locals:         0       0       0       0       0       0       0       0       0       0       0       0       
      +0       0       0       0       0       0       0       0       0       0       0       0       0       0       0       
      +0       0       0       0       0       0
  4480 ;;      Temps:          0       0       0       0       0       0       0       0       0       0       0       0       
      +0       0       0       0       0       0       0       0       0       0       0       0       0       0       0       
      +0       0       0       0       0       0
  4481 ;;      Totals:         3       0       0       0       0       0       0       0       0       0       0       0       
      +0       0       0       0       0       0       0       0       0       0       0       0       0       0       0       
      +0       0       0       0       0       0
  4482 ;;Total ram usage:        3 bytes
  4483 ;; Hardware stack levels used:    1
  4484 ;; Hardware stack levels required when called:    4
  4485 ;; This function calls:
  4486 ;;		Nothing
  4487 ;; This function is called by:
  4488 ;;		_TMR5_Initialize
  4489 ;; This function uses a non-reentrant model
  4490 ;;
  4491                           
  4492                           	psect	text35
  4493  00325C                     __ptext35:
  4494                           	callstack 0
  4495  00325C                     _TMR5_SetInterruptHandler:
  4496                           	callstack 24
  4497                           
  4498                           ; BSR set to: 57
  4499                           ;mcc_generated_files/tmr5.c: 182:     TMR5_InterruptHandler = InterruptHandler;
  4500                           
  4501                           ; BSR set to: 57
  4502                           ;incstack = 0
  4503  00325C  C006  F075         	movff	TMR5_SetInterruptHandler@InterruptHandler,_TMR5_InterruptHandler
  4504  003260  C007  F076         	movff	TMR5_SetInterruptHandler@InterruptHandler+1,_TMR5_InterruptHandler+1
  4505  003264  C008  F077         	movff	TMR5_SetInterruptHandler@InterruptHandler+2,_TMR5_InterruptHandler+2
  4506                           
  4507                           ; BSR set to: 57
  4508  003268  0012               	return		;funcret
  4509  00326A                     __end_of_TMR5_SetInterruptHandler:
  4510                           	callstack 0
  4511                           
  4512 ;; *************** function _TMR0_Initialize *****************
  4513 ;; Defined at:
  4514 ;;		line 70 in file "mcc_generated_files/tmr0.c"
  4515 ;; Parameters:    Size  Location     Type
  4516 ;;		None
  4517 ;; Auto vars:     Size  Location     Type
  4518 ;;		None
  4519 ;; Return value:  Size  Location     Type
  4520 ;;                  1    wreg      void 
  4521 ;; Registers used:
  4522 ;;		wreg, status,2, status,0, cstack
  4523 ;; Tracked objects:
  4524 ;;		On entry : 3F/39
  4525 ;;		On exit  : 3F/39
  4526 ;;		Unchanged: 0/0
  4527 ;; Data sizes:     COMRAM   BANK0   BANK1   BANK2   BANK3   BANK4   BANK5   BANK6   BANK7   BANK8   BANK9  BANK10  BANK1
      +1  BANK12  BANK13  BANK14  BANK15  BANK16  BANK17  BANK18  BANK19  BANK20  BANK21  BANK22  BANK23  BANK24  BANK25  BANK2
      +6  BANK27  BANK28  BANK29  BANK30  BANK31
  4528 ;;      Params:         0       0       0       0       0       0       0       0       0       0       0       0       
      +0       0       0       0       0       0       0       0       0       0       0       0       0       0       0       
      +0       0       0       0       0       0
  4529 ;;      Locals:         0       0       0       0       0       0       0       0       0       0       0       0       
      +0       0       0       0       0       0       0       0       0       0       0       0       0       0       0       
      +0       0       0       0       0       0
  4530 ;;      Temps:          2       0       0       0       0       0       0       0       0       0       0       0       
      +0       0       0       0       0       0       0       0       0       0       0       0       0       0       0       
      +0       0       0       0       0       0
  4531 ;;      Totals:         2       0       0       0       0       0       0       0       0       0       0       0       
      +0       0       0       0       0       0       0       0       0       0       0       0       0       0       0       
      +0       0       0       0       0       0
  4532 ;;Total ram usage:        2 bytes
  4533 ;; Hardware stack levels used:    1
  4534 ;; Hardware stack levels required when called:    5
  4535 ;; This function calls:
  4536 ;;		_TMR0_SetInterruptHandler
  4537 ;; This function is called by:
  4538 ;;		_SYSTEM_Initialize
  4539 ;; This function uses a non-reentrant model
  4540 ;;
  4541                           
  4542                           	psect	text36
  4543  002E76                     __ptext36:
  4544                           	callstack 0
  4545  002E76                     _TMR0_Initialize:
  4546                           	callstack 24
  4547                           
  4548                           ; BSR set to: 57
  4549                           ;mcc_generated_files/tmr0.c: 75:  T0CON1 = 0x40;
  4550                           
  4551                           ; BSR set to: 57
  4552                           ;incstack = 0
  4553  002E76  0E40               	movlw	64
  4554  002E78  6EB9               	movwf	185,c	;volatile
  4555                           
  4556                           ;mcc_generated_files/tmr0.c: 78:     TMR0H = 0xE0;
  4557  002E7A  0EE0               	movlw	224
  4558  002E7C  6EB7               	movwf	183,c	;volatile
  4559                           
  4560                           ;mcc_generated_files/tmr0.c: 81:     TMR0L = 0xC0;
  4561  002E7E  0EC0               	movlw	192
  4562  002E80  6EB6               	movwf	182,c	;volatile
  4563                           
  4564                           ; BSR set to: 57
  4565                           ;mcc_generated_files/tmr0.c: 84:  timer0ReloadVal16bit = (TMR0H << 8) | TMR0L;
  4566  002E82  50B6               	movf	182,w,c	;volatile
  4567  002E84  006F FEDC  F009    	movff	16311,??_TMR0_Initialize	;volatile
  4568  002E8A  6A0A               	clrf	(??_TMR0_Initialize+1)^0,c
  4569  002E8C  C009  F00A         	movff	??_TMR0_Initialize,??_TMR0_Initialize+1
  4570  002E90  6A09               	clrf	??_TMR0_Initialize^0,c
  4571  002E92  1009               	iorwf	??_TMR0_Initialize^0,w,c
  4572  002E94  6E52               	movwf	_timer0ReloadVal16bit^0,c	;volatile
  4573  002E96  500A               	movf	(??_TMR0_Initialize+1)^0,w,c
  4574  002E98  6E53               	movwf	(_timer0ReloadVal16bit+1)^0,c	;volatile
  4575                           
  4576                           ; BSR set to: 57
  4577                           ;mcc_generated_files/tmr0.c: 87:  PIR3bits.TMR0IF = 0;
  4578  002E9A  9FA3               	bcf	163,7,b	;volatile
  4579                           
  4580                           ; BSR set to: 57
  4581                           ;mcc_generated_files/tmr0.c: 90:  PIE3bits.TMR0IE = 1;
  4582  002E9C  8F93               	bsf	147,7,b	;volatile
  4583                           
  4584                           ; BSR set to: 57
  4585                           ;mcc_generated_files/tmr0.c: 93:  TMR0_SetInterruptHandler(TMR0_DefaultInterruptHandler)
      +                          ;
  4586  002E9E  0E92               	movlw	low _TMR0_DefaultInterruptHandler
  4587  002EA0  6E06               	movwf	TMR0_SetInterruptHandler@InterruptHandler^0,c
  4588  002EA2  0E32               	movlw	high _TMR0_DefaultInterruptHandler
  4589  002EA4  6E07               	movwf	(TMR0_SetInterruptHandler@InterruptHandler+1)^0,c
  4590  002EA6  0E00               	movlw	low (_TMR0_DefaultInterruptHandler shr (0+16))
  4591  002EA8  6E08               	movwf	(TMR0_SetInterruptHandler@InterruptHandler+2)^0,c
  4592  002EAA  EC35  F019         	call	_TMR0_SetInterruptHandler	;wreg free
  4593                           
  4594                           ; BSR set to: 57
  4595                           ;mcc_generated_files/tmr0.c: 96:  T0CON0 = 0x90;
  4596  002EAE  0E90               	movlw	144
  4597  002EB0  6EB8               	movwf	184,c	;volatile
  4598                           
  4599                           ; BSR set to: 57
  4600  002EB2  0012               	return		;funcret
  4601  002EB4                     __end_of_TMR0_Initialize:
  4602                           	callstack 0
  4603                           
  4604 ;; *************** function _TMR0_SetInterruptHandler *****************
  4605 ;; Defined at:
  4606 ;;		line 166 in file "mcc_generated_files/tmr0.c"
  4607 ;; Parameters:    Size  Location     Type
  4608 ;;  InterruptHan    3    5[COMRAM] PTR FTN()void 
  4609 ;;		 -> TMR0_DefaultInterruptHandler(1), 
  4610 ;; Auto vars:     Size  Location     Type
  4611 ;;		None
  4612 ;; Return value:  Size  Location     Type
  4613 ;;                  1    wreg      void 
  4614 ;; Registers used:
  4615 ;;		wreg, status,2, status,0
  4616 ;; Tracked objects:
  4617 ;;		On entry : 3F/39
  4618 ;;		On exit  : 3F/39
  4619 ;;		Unchanged: 3E/0
  4620 ;; Data sizes:     COMRAM   BANK0   BANK1   BANK2   BANK3   BANK4   BANK5   BANK6   BANK7   BANK8   BANK9  BANK10  BANK1
      +1  BANK12  BANK13  BANK14  BANK15  BANK16  BANK17  BANK18  BANK19  BANK20  BANK21  BANK22  BANK23  BANK24  BANK25  BANK2
      +6  BANK27  BANK28  BANK29  BANK30  BANK31
  4621 ;;      Params:         3       0       0       0       0       0       0       0       0       0       0       0       
      +0       0       0       0       0       0       0       0       0       0       0       0       0       0       0       
      +0       0       0       0       0       0
  4622 ;;      Locals:         0       0       0       0       0       0       0       0       0       0       0       0       
      +0       0       0       0       0       0       0       0       0       0       0       0       0       0       0       
      +0       0       0       0       0       0
  4623 ;;      Temps:          0       0       0       0       0       0       0       0       0       0       0       0       
      +0       0       0       0       0       0       0       0       0       0       0       0       0       0       0       
      +0       0       0       0       0       0
  4624 ;;      Totals:         3       0       0       0       0       0       0       0       0       0       0       0       
      +0       0       0       0       0       0       0       0       0       0       0       0       0       0       0       
      +0       0       0       0       0       0
  4625 ;;Total ram usage:        3 bytes
  4626 ;; Hardware stack levels used:    1
  4627 ;; Hardware stack levels required when called:    4
  4628 ;; This function calls:
  4629 ;;		Nothing
  4630 ;; This function is called by:
  4631 ;;		_TMR0_Initialize
  4632 ;; This function uses a non-reentrant model
  4633 ;;
  4634                           
  4635                           	psect	text37
  4636  00326A                     __ptext37:
  4637                           	callstack 0
  4638  00326A                     _TMR0_SetInterruptHandler:
  4639                           	callstack 24
  4640                           
  4641                           ; BSR set to: 57
  4642                           ;mcc_generated_files/tmr0.c: 167:  TMR0_InterruptHandler = InterruptHandler;
  4643                           
  4644                           ; BSR set to: 57
  4645                           ;incstack = 0
  4646  00326A  C006  F072         	movff	TMR0_SetInterruptHandler@InterruptHandler,_TMR0_InterruptHandler
  4647  00326E  C007  F073         	movff	TMR0_SetInterruptHandler@InterruptHandler+1,_TMR0_InterruptHandler+1
  4648  003272  C008  F074         	movff	TMR0_SetInterruptHandler@InterruptHandler+2,_TMR0_InterruptHandler+2
  4649                           
  4650                           ; BSR set to: 57
  4651  003276  0012               	return		;funcret
  4652  003278                     __end_of_TMR0_SetInterruptHandler:
  4653                           	callstack 0
  4654                           
  4655 ;; *************** function _PMD_Initialize *****************
  4656 ;; Defined at:
  4657 ;;		line 81 in file "mcc_generated_files/mcc.c"
  4658 ;; Parameters:    Size  Location     Type
  4659 ;;		None
  4660 ;; Auto vars:     Size  Location     Type
  4661 ;;		None
  4662 ;; Return value:  Size  Location     Type
  4663 ;;                  1    wreg      void 
  4664 ;; Registers used:
  4665 ;;		wreg, status,2
  4666 ;; Tracked objects:
  4667 ;;		On entry : 3F/39
  4668 ;;		On exit  : 3F/39
  4669 ;;		Unchanged: 0/0
  4670 ;; Data sizes:     COMRAM   BANK0   BANK1   BANK2   BANK3   BANK4   BANK5   BANK6   BANK7   BANK8   BANK9  BANK10  BANK1
      +1  BANK12  BANK13  BANK14  BANK15  BANK16  BANK17  BANK18  BANK19  BANK20  BANK21  BANK22  BANK23  BANK24  BANK25  BANK2
      +6  BANK27  BANK28  BANK29  BANK30  BANK31
  4671 ;;      Params:         0       0       0       0       0       0       0       0       0       0       0       0       
      +0       0       0       0       0       0       0       0       0       0       0       0       0       0       0       
      +0       0       0       0       0       0
  4672 ;;      Locals:         0       0       0       0       0       0       0       0       0       0       0       0       
      +0       0       0       0       0       0       0       0       0       0       0       0       0       0       0       
      +0       0       0       0       0       0
  4673 ;;      Temps:          0       0       0       0       0       0       0       0       0       0       0       0       
      +0       0       0       0       0       0       0       0       0       0       0       0       0       0       0       
      +0       0       0       0       0       0
  4674 ;;      Totals:         0       0       0       0       0       0       0       0       0       0       0       0       
      +0       0       0       0       0       0       0       0       0       0       0       0       0       0       0       
      +0       0       0       0       0       0
  4675 ;;Total ram usage:        0 bytes
  4676 ;; Hardware stack levels used:    1
  4677 ;; Hardware stack levels required when called:    4
  4678 ;; This function calls:
  4679 ;;		Nothing
  4680 ;; This function is called by:
  4681 ;;		_SYSTEM_Initialize
  4682 ;; This function uses a non-reentrant model
  4683 ;;
  4684                           
  4685                           	psect	text38
  4686  003142                     __ptext38:
  4687                           	callstack 0
  4688  003142                     _PMD_Initialize:
  4689                           	callstack 25
  4690                           
  4691                           ; BSR set to: 57
  4692                           ;mcc_generated_files/mcc.c: 84:     PMD0 = 0x00;
  4693                           
  4694                           ; BSR set to: 57
  4695                           ;incstack = 0
  4696  003142  0E00               	movlw	0
  4697  003144  6FC0               	movwf	192,b	;volatile
  4698                           
  4699                           ;mcc_generated_files/mcc.c: 86:     PMD1 = 0x00;
  4700  003146  0E00               	movlw	0
  4701  003148  6FC1               	movwf	193,b	;volatile
  4702                           
  4703                           ;mcc_generated_files/mcc.c: 88:     PMD2 = 0x00;
  4704  00314A  0E00               	movlw	0
  4705  00314C  6FC2               	movwf	194,b	;volatile
  4706                           
  4707                           ;mcc_generated_files/mcc.c: 90:     PMD3 = 0x00;
  4708  00314E  0E00               	movlw	0
  4709  003150  6FC3               	movwf	195,b	;volatile
  4710                           
  4711                           ;mcc_generated_files/mcc.c: 92:     PMD4 = 0x00;
  4712  003152  0E00               	movlw	0
  4713  003154  6FC4               	movwf	196,b	;volatile
  4714                           
  4715                           ;mcc_generated_files/mcc.c: 94:     PMD5 = 0x00;
  4716  003156  0E00               	movlw	0
  4717  003158  6FC5               	movwf	197,b	;volatile
  4718                           
  4719                           ;mcc_generated_files/mcc.c: 96:     PMD6 = 0x00;
  4720  00315A  0E00               	movlw	0
  4721  00315C  6FC6               	movwf	198,b	;volatile
  4722                           
  4723                           ;mcc_generated_files/mcc.c: 98:     PMD7 = 0x00;
  4724  00315E  0E00               	movlw	0
  4725  003160  6FC7               	movwf	199,b	;volatile
  4726                           
  4727                           ; BSR set to: 57
  4728  003162  0012               	return		;funcret
  4729  003164                     __end_of_PMD_Initialize:
  4730                           	callstack 0
  4731                           
  4732 ;; *************** function _PIN_MANAGER_Initialize *****************
  4733 ;; Defined at:
  4734 ;;		line 55 in file "mcc_generated_files/pin_manager.c"
  4735 ;; Parameters:    Size  Location     Type
  4736 ;;		None
  4737 ;; Auto vars:     Size  Location     Type
  4738 ;;		None
  4739 ;; Return value:  Size  Location     Type
  4740 ;;                  1    wreg      void 
  4741 ;; Registers used:
  4742 ;;		wreg, status,2
  4743 ;; Tracked objects:
  4744 ;;		On entry : 3F/39
  4745 ;;		On exit  : 3F/3A
  4746 ;;		Unchanged: 0/0
  4747 ;; Data sizes:     COMRAM   BANK0   BANK1   BANK2   BANK3   BANK4   BANK5   BANK6   BANK7   BANK8   BANK9  BANK10  BANK1
      +1  BANK12  BANK13  BANK14  BANK15  BANK16  BANK17  BANK18  BANK19  BANK20  BANK21  BANK22  BANK23  BANK24  BANK25  BANK2
      +6  BANK27  BANK28  BANK29  BANK30  BANK31
  4748 ;;      Params:         0       0       0       0       0       0       0       0       0       0       0       0       
      +0       0       0       0       0       0       0       0       0       0       0       0       0       0       0       
      +0       0       0       0       0       0
  4749 ;;      Locals:         0       0       0       0       0       0       0       0       0       0       0       0       
      +0       0       0       0       0       0       0       0       0       0       0       0       0       0       0       
      +0       0       0       0       0       0
  4750 ;;      Temps:          0       0       0       0       0       0       0       0       0       0       0       0       
      +0       0       0       0       0       0       0       0       0       0       0       0       0       0       0       
      +0       0       0       0       0       0
  4751 ;;      Totals:         0       0       0       0       0       0       0       0       0       0       0       0       
      +0       0       0       0       0       0       0       0       0       0       0       0       0       0       0       
      +0       0       0       0       0       0
  4752 ;;Total ram usage:        0 bytes
  4753 ;; Hardware stack levels used:    1
  4754 ;; Hardware stack levels required when called:    4
  4755 ;; This function calls:
  4756 ;;		Nothing
  4757 ;; This function is called by:
  4758 ;;		_SYSTEM_Initialize
  4759 ;; This function uses a non-reentrant model
  4760 ;;
  4761                           
  4762                           	psect	text39
  4763  002A52                     __ptext39:
  4764                           	callstack 0
  4765  002A52                     _PIN_MANAGER_Initialize:
  4766                           	callstack 25
  4767                           
  4768                           ; BSR set to: 57
  4769                           ;mcc_generated_files/pin_manager.c: 60:     LATE = 0x00;
  4770                           
  4771                           ; BSR set to: 57
  4772                           ;incstack = 0
  4773  002A52  0E00               	movlw	0
  4774  002A54  6EBE               	movwf	190,c	;volatile
  4775                           
  4776                           ;mcc_generated_files/pin_manager.c: 61:     LATD = 0x00;
  4777  002A56  0E00               	movlw	0
  4778  002A58  6EBD               	movwf	189,c	;volatile
  4779                           
  4780                           ;mcc_generated_files/pin_manager.c: 62:     LATA = 0x00;
  4781  002A5A  0E00               	movlw	0
  4782  002A5C  6EBA               	movwf	186,c	;volatile
  4783                           
  4784                           ;mcc_generated_files/pin_manager.c: 63:     LATB = 0x00;
  4785  002A5E  0E00               	movlw	0
  4786  002A60  6EBB               	movwf	187,c	;volatile
  4787                           
  4788                           ;mcc_generated_files/pin_manager.c: 64:     LATC = 0x00;
  4789  002A62  0E00               	movlw	0
  4790  002A64  6EBC               	movwf	188,c	;volatile
  4791                           
  4792                           ;mcc_generated_files/pin_manager.c: 69:     TRISE = 0x00;
  4793  002A66  0E00               	movlw	0
  4794  002A68  6EC6               	movwf	198,c	;volatile
  4795                           
  4796                           ;mcc_generated_files/pin_manager.c: 70:     TRISA = 0x8F;
  4797  002A6A  0E8F               	movlw	143
  4798  002A6C  6EC2               	movwf	194,c	;volatile
  4799                           
  4800                           ;mcc_generated_files/pin_manager.c: 71:     TRISB = 0xC0;
  4801  002A6E  0EC0               	movlw	192
  4802  002A70  6EC3               	movwf	195,c	;volatile
  4803                           
  4804                           ;mcc_generated_files/pin_manager.c: 72:     TRISC = 0xE0;
  4805  002A72  0EE0               	movlw	224
  4806  002A74  6EC4               	movwf	196,c	;volatile
  4807                           
  4808                           ;mcc_generated_files/pin_manager.c: 73:     TRISD = 0x00;
  4809  002A76  0E00               	movlw	0
  4810  002A78  6EC5               	movwf	197,c	;volatile
  4811                           
  4812                           ;mcc_generated_files/pin_manager.c: 78:     ANSELD = 0x00;
  4813  002A7A  0E00               	movlw	0
  4814  002A7C  013A               	movlb	58	; () banked
  4815  002A7E  6F70               	movwf	112,b	;volatile
  4816                           
  4817                           ;mcc_generated_files/pin_manager.c: 79:     ANSELC = 0x00;
  4818  002A80  0E00               	movlw	0
  4819  002A82  6F60               	movwf	96,b	;volatile
  4820                           
  4821                           ;mcc_generated_files/pin_manager.c: 80:     ANSELB = 0x00;
  4822  002A84  0E00               	movlw	0
  4823  002A86  6F50               	movwf	80,b	;volatile
  4824                           
  4825                           ;mcc_generated_files/pin_manager.c: 81:     ANSELE = 0x00;
  4826  002A88  0E00               	movlw	0
  4827  002A8A  6F80               	movwf	128,b	;volatile
  4828                           
  4829                           ;mcc_generated_files/pin_manager.c: 82:     ANSELA = 0x83;
  4830  002A8C  0E83               	movlw	131
  4831  002A8E  6F40               	movwf	64,b	;volatile
  4832                           
  4833                           ;mcc_generated_files/pin_manager.c: 87:     WPUD = 0x00;
  4834  002A90  0E00               	movlw	0
  4835  002A92  6F71               	movwf	113,b	;volatile
  4836                           
  4837                           ;mcc_generated_files/pin_manager.c: 88:     WPUE = 0x00;
  4838  002A94  0E00               	movlw	0
  4839  002A96  6F81               	movwf	129,b	;volatile
  4840                           
  4841                           ;mcc_generated_files/pin_manager.c: 89:     WPUB = 0x00;
  4842  002A98  0E00               	movlw	0
  4843  002A9A  6F51               	movwf	81,b	;volatile
  4844                           
  4845                           ;mcc_generated_files/pin_manager.c: 90:     WPUA = 0x0C;
  4846  002A9C  0E0C               	movlw	12
  4847  002A9E  6F41               	movwf	65,b	;volatile
  4848                           
  4849                           ;mcc_generated_files/pin_manager.c: 91:     WPUC = 0x00;
  4850  002AA0  0E00               	movlw	0
  4851  002AA2  6F61               	movwf	97,b	;volatile
  4852                           
  4853                           ;mcc_generated_files/pin_manager.c: 96:     RB1I2C = 0x00;
  4854  002AA4  0E00               	movlw	0
  4855  002AA6  6F5A               	movwf	90,b	;volatile
  4856                           
  4857                           ;mcc_generated_files/pin_manager.c: 97:     RB2I2C = 0x00;
  4858  002AA8  0E00               	movlw	0
  4859  002AAA  6F5B               	movwf	91,b	;volatile
  4860                           
  4861                           ;mcc_generated_files/pin_manager.c: 98:     RC3I2C = 0x00;
  4862  002AAC  0E00               	movlw	0
  4863  002AAE  6F6A               	movwf	106,b	;volatile
  4864                           
  4865                           ;mcc_generated_files/pin_manager.c: 99:     RC4I2C = 0x00;
  4866  002AB0  0E00               	movlw	0
  4867  002AB2  6F6B               	movwf	107,b	;volatile
  4868                           
  4869                           ;mcc_generated_files/pin_manager.c: 100:     RD0I2C = 0x00;
  4870  002AB4  0E00               	movlw	0
  4871  002AB6  6F7A               	movwf	122,b	;volatile
  4872                           
  4873                           ;mcc_generated_files/pin_manager.c: 101:     RD1I2C = 0x00;
  4874  002AB8  0E00               	movlw	0
  4875  002ABA  6F7B               	movwf	123,b	;volatile
  4876                           
  4877                           ;mcc_generated_files/pin_manager.c: 106:     ODCONE = 0x00;
  4878  002ABC  0E00               	movlw	0
  4879  002ABE  6F82               	movwf	130,b	;volatile
  4880                           
  4881                           ;mcc_generated_files/pin_manager.c: 107:     ODCONA = 0x00;
  4882  002AC0  0E00               	movlw	0
  4883  002AC2  6F42               	movwf	66,b	;volatile
  4884                           
  4885                           ;mcc_generated_files/pin_manager.c: 108:     ODCONB = 0x00;
  4886  002AC4  0E00               	movlw	0
  4887  002AC6  6F52               	movwf	82,b	;volatile
  4888                           
  4889                           ;mcc_generated_files/pin_manager.c: 109:     ODCONC = 0x00;
  4890  002AC8  0E00               	movlw	0
  4891  002ACA  6F62               	movwf	98,b	;volatile
  4892                           
  4893                           ;mcc_generated_files/pin_manager.c: 110:     ODCOND = 0x00;
  4894  002ACC  0E00               	movlw	0
  4895  002ACE  6F72               	movwf	114,b	;volatile
  4896                           
  4897                           ; BSR set to: 58
  4898                           ;mcc_generated_files/pin_manager.c: 115:     SLRCONA = 0xFF;
  4899  002AD0  6943               	setf	67,b	;volatile
  4900                           
  4901                           ; BSR set to: 58
  4902                           ;mcc_generated_files/pin_manager.c: 116:     SLRCONB = 0xFF;
  4903  002AD2  6953               	setf	83,b	;volatile
  4904                           
  4905                           ; BSR set to: 58
  4906                           ;mcc_generated_files/pin_manager.c: 117:     SLRCONC = 0xFF;
  4907  002AD4  6963               	setf	99,b	;volatile
  4908                           
  4909                           ; BSR set to: 58
  4910                           ;mcc_generated_files/pin_manager.c: 118:     SLRCOND = 0xFF;
  4911  002AD6  6973               	setf	115,b	;volatile
  4912                           
  4913                           ;mcc_generated_files/pin_manager.c: 119:     SLRCONE = 0x07;
  4914  002AD8  0E07               	movlw	7
  4915  002ADA  6F83               	movwf	131,b	;volatile
  4916                           
  4917                           ; BSR set to: 58
  4918                           ;mcc_generated_files/pin_manager.c: 124:     INLVLA = 0xFF;
  4919  002ADC  6944               	setf	68,b	;volatile
  4920                           
  4921                           ; BSR set to: 58
  4922                           ;mcc_generated_files/pin_manager.c: 125:     INLVLB = 0xFF;
  4923  002ADE  6954               	setf	84,b	;volatile
  4924                           
  4925                           ; BSR set to: 58
  4926                           ;mcc_generated_files/pin_manager.c: 126:     INLVLC = 0xFF;
  4927  002AE0  6964               	setf	100,b	;volatile
  4928                           
  4929                           ; BSR set to: 58
  4930                           ;mcc_generated_files/pin_manager.c: 127:     INLVLD = 0xFF;
  4931  002AE2  6974               	setf	116,b	;volatile
  4932                           
  4933                           ;mcc_generated_files/pin_manager.c: 128:     INLVLE = 0x0F;
  4934  002AE4  0E0F               	movlw	15
  4935  002AE6  6F84               	movwf	132,b	;volatile
  4936                           
  4937                           ;mcc_generated_files/pin_manager.c: 137:     U2RXPPS = 0x0F;
  4938  002AE8  0E0F               	movlw	15
  4939  002AEA  6FE8               	movwf	232,b	;volatile
  4940                           
  4941                           ;mcc_generated_files/pin_manager.c: 138:     U1RXPPS = 0x17;
  4942  002AEC  0E17               	movlw	23
  4943  002AEE  6FE5               	movwf	229,b	;volatile
  4944                           
  4945                           ; BSR set to: 58
  4946  002AF0  0012               	return		;funcret
  4947  002AF2                     __end_of_PIN_MANAGER_Initialize:
  4948                           	callstack 0
  4949                           
  4950 ;; *************** function _OSCILLATOR_Initialize *****************
  4951 ;; Defined at:
  4952 ;;		line 63 in file "mcc_generated_files/mcc.c"
  4953 ;; Parameters:    Size  Location     Type
  4954 ;;		None
  4955 ;; Auto vars:     Size  Location     Type
  4956 ;;		None
  4957 ;; Return value:  Size  Location     Type
  4958 ;;                  1    wreg      void 
  4959 ;; Registers used:
  4960 ;;		wreg, status,2
  4961 ;; Tracked objects:
  4962 ;;		On entry : 3F/3A
  4963 ;;		On exit  : 3F/39
  4964 ;;		Unchanged: 0/0
  4965 ;; Data sizes:     COMRAM   BANK0   BANK1   BANK2   BANK3   BANK4   BANK5   BANK6   BANK7   BANK8   BANK9  BANK10  BANK1
      +1  BANK12  BANK13  BANK14  BANK15  BANK16  BANK17  BANK18  BANK19  BANK20  BANK21  BANK22  BANK23  BANK24  BANK25  BANK2
      +6  BANK27  BANK28  BANK29  BANK30  BANK31
  4966 ;;      Params:         0       0       0       0       0       0       0       0       0       0       0       0       
      +0       0       0       0       0       0       0       0       0       0       0       0       0       0       0       
      +0       0       0       0       0       0
  4967 ;;      Locals:         0       0       0       0       0       0       0       0       0       0       0       0       
      +0       0       0       0       0       0       0       0       0       0       0       0       0       0       0       
      +0       0       0       0       0       0
  4968 ;;      Temps:          0       0       0       0       0       0       0       0       0       0       0       0       
      +0       0       0       0       0       0       0       0       0       0       0       0       0       0       0       
      +0       0       0       0       0       0
  4969 ;;      Totals:         0       0       0       0       0       0       0       0       0       0       0       0       
      +0       0       0       0       0       0       0       0       0       0       0       0       0       0       0       
      +0       0       0       0       0       0
  4970 ;;Total ram usage:        0 bytes
  4971 ;; Hardware stack levels used:    1
  4972 ;; Hardware stack levels required when called:    4
  4973 ;; This function calls:
  4974 ;;		Nothing
  4975 ;; This function is called by:
  4976 ;;		_SYSTEM_Initialize
  4977 ;; This function uses a non-reentrant model
  4978 ;;
  4979                           
  4980                           	psect	text40
  4981  003182                     __ptext40:
  4982                           	callstack 0
  4983  003182                     _OSCILLATOR_Initialize:
  4984                           	callstack 25
  4985                           
  4986                           ; BSR set to: 58
  4987                           ;mcc_generated_files/mcc.c: 66:     OSCCON1 = 0x20;
  4988                           
  4989                           ; BSR set to: 58
  4990                           ;incstack = 0
  4991  003182  0E20               	movlw	32
  4992  003184  0139               	movlb	57	; () banked
  4993  003186  6FD9               	movwf	217,b	;volatile
  4994                           
  4995                           ;mcc_generated_files/mcc.c: 68:     OSCCON3 = 0x00;
  4996  003188  0E00               	movlw	0
  4997  00318A  6FDB               	movwf	219,b	;volatile
  4998                           
  4999                           ;mcc_generated_files/mcc.c: 70:     OSCEN = 0x00;
  5000  00318C  0E00               	movlw	0
  5001  00318E  6FDD               	movwf	221,b	;volatile
  5002                           
  5003                           ;mcc_generated_files/mcc.c: 72:     OSCFRQ = 0x08;
  5004  003190  0E08               	movlw	8
  5005  003192  6FDF               	movwf	223,b	;volatile
  5006                           
  5007                           ;mcc_generated_files/mcc.c: 74:     OSCTUNE = 0x00;
  5008  003194  0E00               	movlw	0
  5009  003196  6FDE               	movwf	222,b	;volatile
  5010  003198                     l259:
  5011                           
  5012                           ; BSR set to: 57
  5013                           ;mcc_generated_files/mcc.c: 76:     while(PLLR == 0)
  5014  003198  B1DC               	btfsc	220,0,b	;volatile
  5015  00319A  0012               	return	
  5016  00319C  D7FD               	goto	l259
  5017  00319E                     __end_of_OSCILLATOR_Initialize:
  5018                           	callstack 0
  5019                           
  5020 ;; *************** function _INTERRUPT_Initialize *****************
  5021 ;; Defined at:
  5022 ;;		line 52 in file "mcc_generated_files/interrupt_manager.c"
  5023 ;; Parameters:    Size  Location     Type
  5024 ;;		None
  5025 ;; Auto vars:     Size  Location     Type
  5026 ;;  state           1    5[COMRAM] _Bool 
  5027 ;; Return value:  Size  Location     Type
  5028 ;;                  1    wreg      void 
  5029 ;; Registers used:
  5030 ;;		wreg, status,2
  5031 ;; Tracked objects:
  5032 ;;		On entry : 0/0
  5033 ;;		On exit  : 3F/39
  5034 ;;		Unchanged: 0/0
  5035 ;; Data sizes:     COMRAM   BANK0   BANK1   BANK2   BANK3   BANK4   BANK5   BANK6   BANK7   BANK8   BANK9  BANK10  BANK1
      +1  BANK12  BANK13  BANK14  BANK15  BANK16  BANK17  BANK18  BANK19  BANK20  BANK21  BANK22  BANK23  BANK24  BANK25  BANK2
      +6  BANK27  BANK28  BANK29  BANK30  BANK31
  5036 ;;      Params:         0       0       0       0       0       0       0       0       0       0       0       0       
      +0       0       0       0       0       0       0       0       0       0       0       0       0       0       0       
      +0       0       0       0       0       0
  5037 ;;      Locals:         1       0       0       0       0       0       0       0       0       0       0       0       
      +0       0       0       0       0       0       0       0       0       0       0       0       0       0       0       
      +0       0       0       0       0       0
  5038 ;;      Temps:          0       0       0       0       0       0       0       0       0       0       0       0       
      +0       0       0       0       0       0       0       0       0       0       0       0       0       0       0       
      +0       0       0       0       0       0
  5039 ;;      Totals:         1       0       0       0       0       0       0       0       0       0       0       0       
      +0       0       0       0       0       0       0       0       0       0       0       0       0       0       0       
      +0       0       0       0       0       0
  5040 ;;Total ram usage:        1 bytes
  5041 ;; Hardware stack levels used:    1
  5042 ;; Hardware stack levels required when called:    4
  5043 ;; This function calls:
  5044 ;;		Nothing
  5045 ;; This function is called by:
  5046 ;;		_SYSTEM_Initialize
  5047 ;; This function uses a non-reentrant model
  5048 ;;
  5049                           
  5050                           	psect	text41
  5051  002DF2                     __ptext41:
  5052                           	callstack 0
  5053  002DF2                     _INTERRUPT_Initialize:
  5054                           	callstack 25
  5055                           
  5056                           ;mcc_generated_files/interrupt_manager.c: 54:     INTCON0bits.IPEN = 1;
  5057                           
  5058                           ; BSR set to: 57
  5059                           ;incstack = 0
  5060  002DF2  8AD2               	bsf	210,5,c	;volatile
  5061                           
  5062                           ;mcc_generated_files/interrupt_manager.c: 56:     _Bool state = (unsigned char)GIE;
  5063  002DF4  0E00               	movlw	0
  5064  002DF6  BED2               	btfsc	16338,7,c	;volatile
  5065  002DF8  0E01               	movlw	1
  5066  002DFA  6E06               	movwf	INTERRUPT_Initialize@state^0,c
  5067                           
  5068                           ;mcc_generated_files/interrupt_manager.c: 57:     GIE = 0;
  5069  002DFC  9ED2               	bcf	16338,7,c	;volatile
  5070                           
  5071                           ;mcc_generated_files/interrupt_manager.c: 58:     IVTLOCK = 0x55;
  5072  002DFE  0E55               	movlw	85
  5073  002E00  6ED4               	movwf	212,c	;volatile
  5074                           
  5075                           ;mcc_generated_files/interrupt_manager.c: 59:     IVTLOCK = 0xAA;
  5076  002E02  0EAA               	movlw	170
  5077  002E04  6ED4               	movwf	212,c	;volatile
  5078                           
  5079                           ;mcc_generated_files/interrupt_manager.c: 60:     IVTLOCKbits.IVTLOCKED = 0x00;
  5080  002E06  90D4               	bcf	212,0,c	;volatile
  5081                           
  5082                           ;mcc_generated_files/interrupt_manager.c: 62:     IVTBASEU = 0;
  5083  002E08  0E00               	movlw	0
  5084  002E0A  6ED7               	movwf	215,c	;volatile
  5085                           
  5086                           ;mcc_generated_files/interrupt_manager.c: 63:     IVTBASEH = 0;
  5087  002E0C  0E00               	movlw	0
  5088  002E0E  6ED6               	movwf	214,c	;volatile
  5089                           
  5090                           ;mcc_generated_files/interrupt_manager.c: 64:     IVTBASEL = 8;
  5091  002E10  0E08               	movlw	8
  5092  002E12  6ED5               	movwf	213,c	;volatile
  5093                           
  5094                           ;mcc_generated_files/interrupt_manager.c: 66:     IVTLOCK = 0x55;
  5095  002E14  0E55               	movlw	85
  5096  002E16  6ED4               	movwf	212,c	;volatile
  5097                           
  5098                           ;mcc_generated_files/interrupt_manager.c: 67:     IVTLOCK = 0xAA;
  5099  002E18  0EAA               	movlw	170
  5100  002E1A  6ED4               	movwf	212,c	;volatile
  5101                           
  5102                           ;mcc_generated_files/interrupt_manager.c: 68:     IVTLOCKbits.IVTLOCKED = 0x01;
  5103  002E1C  80D4               	bsf	212,0,c	;volatile
  5104                           
  5105                           ;mcc_generated_files/interrupt_manager.c: 70:     GIE = state;
  5106  002E1E  B006               	btfsc	INTERRUPT_Initialize@state^0,0,c
  5107  002E20  D002               	bra	u2025
  5108  002E22  9ED2               	bcf	16338,7,c	;volatile
  5109  002E24  D001               	bra	u2026
  5110  002E26                     u2025:
  5111  002E26  8ED2               	bsf	16338,7,c	;volatile
  5112  002E28                     u2026:
  5113                           
  5114                           ;mcc_generated_files/interrupt_manager.c: 72:     IPR6bits.U2TXIP = 1;
  5115  002E28  0139               	movlb	57	; () banked
  5116  002E2A  8786               	bsf	134,3,b	;volatile
  5117                           
  5118                           ; BSR set to: 57
  5119                           ;mcc_generated_files/interrupt_manager.c: 73:     IPR6bits.U2RXIP = 1;
  5120  002E2C  8586               	bsf	134,2,b	;volatile
  5121                           
  5122                           ; BSR set to: 57
  5123                           ;mcc_generated_files/interrupt_manager.c: 74:     IPR3bits.U1TXIP = 1;
  5124  002E2E  8983               	bsf	131,4,b	;volatile
  5125                           
  5126                           ; BSR set to: 57
  5127                           ;mcc_generated_files/interrupt_manager.c: 75:     IPR3bits.U1RXIP = 1;
  5128  002E30  8783               	bsf	131,3,b	;volatile
  5129                           
  5130                           ; BSR set to: 57
  5131                           ;mcc_generated_files/interrupt_manager.c: 76:     IPR3bits.TMR0IP = 1;
  5132  002E32  8F83               	bsf	131,7,b	;volatile
  5133                           
  5134                           ; BSR set to: 57
  5135                           ;mcc_generated_files/interrupt_manager.c: 77:     IPR8bits.TMR5IP = 1;
  5136  002E34  8D88               	bsf	136,6,b	;volatile
  5137                           
  5138                           ; BSR set to: 57
  5139  002E36  0012               	return		;funcret
  5140  002E38                     __end_of_INTERRUPT_Initialize:
  5141                           	callstack 0
  5142                           
  5143 ;; *************** function _ADCC_Initialize *****************
  5144 ;; Defined at:
  5145 ;;		line 62 in file "mcc_generated_files/adcc.c"
  5146 ;; Parameters:    Size  Location     Type
  5147 ;;		None
  5148 ;; Auto vars:     Size  Location     Type
  5149 ;;		None
  5150 ;; Return value:  Size  Location     Type
  5151 ;;                  1    wreg      void 
  5152 ;; Registers used:
  5153 ;;		wreg, status,2
  5154 ;; Tracked objects:
  5155 ;;		On entry : 3F/39
  5156 ;;		On exit  : 3F/3E
  5157 ;;		Unchanged: 0/0
  5158 ;; Data sizes:     COMRAM   BANK0   BANK1   BANK2   BANK3   BANK4   BANK5   BANK6   BANK7   BANK8   BANK9  BANK10  BANK1
      +1  BANK12  BANK13  BANK14  BANK15  BANK16  BANK17  BANK18  BANK19  BANK20  BANK21  BANK22  BANK23  BANK24  BANK25  BANK2
      +6  BANK27  BANK28  BANK29  BANK30  BANK31
  5159 ;;      Params:         0       0       0       0       0       0       0       0       0       0       0       0       
      +0       0       0       0       0       0       0       0       0       0       0       0       0       0       0       
      +0       0       0       0       0       0
  5160 ;;      Locals:         0       0       0       0       0       0       0       0       0       0       0       0       
      +0       0       0       0       0       0       0       0       0       0       0       0       0       0       0       
      +0       0       0       0       0       0
  5161 ;;      Temps:          0       0       0       0       0       0       0       0       0       0       0       0       
      +0       0       0       0       0       0       0       0       0       0       0       0       0       0       0       
      +0       0       0       0       0       0
  5162 ;;      Totals:         0       0       0       0       0       0       0       0       0       0       0       0       
      +0       0       0       0       0       0       0       0       0       0       0       0       0       0       0       
      +0       0       0       0       0       0
  5163 ;;Total ram usage:        0 bytes
  5164 ;; Hardware stack levels used:    1
  5165 ;; Hardware stack levels required when called:    4
  5166 ;; This function calls:
  5167 ;;		Nothing
  5168 ;; This function is called by:
  5169 ;;		_SYSTEM_Initialize
  5170 ;; This function uses a non-reentrant model
  5171 ;;
  5172                           
  5173                           	psect	text42
  5174  002D00                     __ptext42:
  5175                           	callstack 0
  5176  002D00                     _ADCC_Initialize:
  5177                           	callstack 25
  5178                           
  5179                           ; BSR set to: 57
  5180                           ;mcc_generated_files/adcc.c: 66:     ADLTHL = 0x00;
  5181                           
  5182                           ; BSR set to: 57
  5183                           ;incstack = 0
  5184  002D00  0E00               	movlw	0
  5185  002D02  013E               	movlb	62	; () banked
  5186  002D04  6FDE               	movwf	222,b	;volatile
  5187                           
  5188                           ;mcc_generated_files/adcc.c: 68:     ADLTHH = 0x00;
  5189  002D06  0E00               	movlw	0
  5190  002D08  6FDF               	movwf	223,b	;volatile
  5191                           
  5192                           ;mcc_generated_files/adcc.c: 70:     ADUTHL = 0x00;
  5193  002D0A  0E00               	movlw	0
  5194  002D0C  6FE0               	movwf	224,b	;volatile
  5195                           
  5196                           ;mcc_generated_files/adcc.c: 72:     ADUTHH = 0x00;
  5197  002D0E  0E00               	movlw	0
  5198  002D10  6FE1               	movwf	225,b	;volatile
  5199                           
  5200                           ;mcc_generated_files/adcc.c: 74:     ADSTPTL = 0x00;
  5201  002D12  0E00               	movlw	0
  5202  002D14  6FE4               	movwf	228,b	;volatile
  5203                           
  5204                           ;mcc_generated_files/adcc.c: 76:     ADSTPTH = 0x00;
  5205  002D16  0E00               	movlw	0
  5206  002D18  6FE5               	movwf	229,b	;volatile
  5207                           
  5208                           ;mcc_generated_files/adcc.c: 78:     ADACCU = 0x00;
  5209  002D1A  0E00               	movlw	0
  5210  002D1C  6FEA               	movwf	234,b	;volatile
  5211                           
  5212                           ;mcc_generated_files/adcc.c: 80:     ADRPT = 0x00;
  5213  002D1E  0E00               	movlw	0
  5214  002D20  6FEC               	movwf	236,b	;volatile
  5215                           
  5216                           ;mcc_generated_files/adcc.c: 82:     ADPCH = 0x00;
  5217  002D22  0E00               	movlw	0
  5218  002D24  6FF1               	movwf	241,b	;volatile
  5219                           
  5220                           ;mcc_generated_files/adcc.c: 84:     ADACQL = 0x20;
  5221  002D26  0E20               	movlw	32
  5222  002D28  6FF3               	movwf	243,b	;volatile
  5223                           
  5224                           ;mcc_generated_files/adcc.c: 86:     ADACQH = 0x00;
  5225  002D2A  0E00               	movlw	0
  5226  002D2C  6FF4               	movwf	244,b	;volatile
  5227                           
  5228                           ;mcc_generated_files/adcc.c: 88:     ADCAP = 0x00;
  5229  002D2E  0E00               	movlw	0
  5230  002D30  6FF5               	movwf	245,b	;volatile
  5231                           
  5232                           ;mcc_generated_files/adcc.c: 90:     ADPREL = 0x00;
  5233  002D32  0E00               	movlw	0
  5234  002D34  6FF6               	movwf	246,b	;volatile
  5235                           
  5236                           ;mcc_generated_files/adcc.c: 92:     ADPREH = 0x00;
  5237  002D36  0E00               	movlw	0
  5238  002D38  6FF7               	movwf	247,b	;volatile
  5239                           
  5240                           ;mcc_generated_files/adcc.c: 94:     ADCON1 = 0x00;
  5241  002D3A  0E00               	movlw	0
  5242  002D3C  6FF9               	movwf	249,b	;volatile
  5243                           
  5244                           ;mcc_generated_files/adcc.c: 96:     ADCON2 = 0x00;
  5245  002D3E  0E00               	movlw	0
  5246  002D40  6FFA               	movwf	250,b	;volatile
  5247                           
  5248                           ;mcc_generated_files/adcc.c: 98:     ADCON3 = 0x00;
  5249  002D42  0E00               	movlw	0
  5250  002D44  6FFB               	movwf	251,b	;volatile
  5251                           
  5252                           ;mcc_generated_files/adcc.c: 100:     ADSTAT = 0x00;
  5253  002D46  0E00               	movlw	0
  5254  002D48  6FFC               	movwf	252,b	;volatile
  5255                           
  5256                           ;mcc_generated_files/adcc.c: 102:     ADREF = 0x00;
  5257  002D4A  0E00               	movlw	0
  5258  002D4C  6FFD               	movwf	253,b	;volatile
  5259                           
  5260                           ;mcc_generated_files/adcc.c: 104:     ADACT = 0x00;
  5261  002D4E  0E00               	movlw	0
  5262  002D50  6FFE               	movwf	254,b	;volatile
  5263                           
  5264                           ;mcc_generated_files/adcc.c: 106:     ADCLK = 0x00;
  5265  002D52  0E00               	movlw	0
  5266  002D54  6FFF               	movwf	255,b	;volatile
  5267                           
  5268                           ;mcc_generated_files/adcc.c: 108:     ADCON0 = 0x94;
  5269  002D56  0E94               	movlw	148
  5270  002D58  6FF8               	movwf	248,b	;volatile
  5271                           
  5272                           ; BSR set to: 62
  5273  002D5A  0012               	return		;funcret
  5274  002D5C                     __end_of_ADCC_Initialize:
  5275                           	callstack 0
  5276                           
  5277 ;; *************** function _Default_ISR *****************
  5278 ;; Defined at:
  5279 ;;		line 80 in file "mcc_generated_files/interrupt_manager.c"
  5280 ;; Parameters:    Size  Location     Type
  5281 ;;		None
  5282 ;; Auto vars:     Size  Location     Type
  5283 ;;		None
  5284 ;; Return value:  Size  Location     Type
  5285 ;;                  1    wreg      void 
  5286 ;; Registers used:
  5287 ;;		None
  5288 ;; Tracked objects:
  5289 ;;		On entry : 0/0
  5290 ;;		On exit  : 0/0
  5291 ;;		Unchanged: 0/0
  5292 ;; Data sizes:     COMRAM   BANK0   BANK1   BANK2   BANK3   BANK4   BANK5   BANK6   BANK7   BANK8   BANK9  BANK10  BANK1
      +1  BANK12  BANK13  BANK14  BANK15  BANK16  BANK17  BANK18  BANK19  BANK20  BANK21  BANK22  BANK23  BANK24  BANK25  BANK2
      +6  BANK27  BANK28  BANK29  BANK30  BANK31
  5293 ;;      Params:         0       0       0       0       0       0       0       0       0       0       0       0       
      +0       0       0       0       0       0       0       0       0       0       0       0       0       0       0       
      +0       0       0       0       0       0
  5294 ;;      Locals:         0       0       0       0       0       0       0       0       0       0       0       0       
      +0       0       0       0       0       0       0       0       0       0       0       0       0       0       0       
      +0       0       0       0       0       0
  5295 ;;      Temps:          0       0       0       0       0       0       0       0       0       0       0       0       
      +0       0       0       0       0       0       0       0       0       0       0       0       0       0       0       
      +0       0       0       0       0       0
  5296 ;;      Totals:         0       0       0       0       0       0       0       0       0       0       0       0       
      +0       0       0       0       0       0       0       0       0       0       0       0       0       0       0       
      +0       0       0       0       0       0
  5297 ;;Total ram usage:        0 bytes
  5298 ;; Hardware stack levels used:    1
  5299 ;; This function calls:
  5300 ;;		Nothing
  5301 ;; This function is called by:
  5302 ;;		Interrupt level 2
  5303 ;; This function uses a non-reentrant model
  5304 ;;
  5305                           
  5306                           	psect	text43
  5307  003290                     __ptext43:
  5308                           	callstack 0
  5309  003290                     _Default_ISR:
  5310                           	callstack 22
  5311                           
  5312                           ; BSR set to: 62
  5313                           ;incstack = 0
  5314                           ;mcc_generated_files/interrupt_manager.c: 82:  while (1);
  5315  003290  D7FF               	goto	_Default_ISR
  5316  003292                     __end_of_Default_ISR:
  5317                           	callstack 0
  5318                           
  5319 ;; *************** function _TMR5_ISR *****************
  5320 ;; Defined at:
  5321 ;;		line 167 in file "mcc_generated_files/tmr5.c"
  5322 ;; Parameters:    Size  Location     Type
  5323 ;;		None
  5324 ;; Auto vars:     Size  Location     Type
  5325 ;;		None
  5326 ;; Return value:  Size  Location     Type
  5327 ;;                  1    wreg      void 
  5328 ;; Registers used:
  5329 ;;		wreg, status,2, status,0, pclath, tosl, cstack
  5330 ;; Tracked objects:
  5331 ;;		On entry : 0/0
  5332 ;;		On exit  : 0/0
  5333 ;;		Unchanged: 0/0
  5334 ;; Data sizes:     COMRAM   BANK0   BANK1   BANK2   BANK3   BANK4   BANK5   BANK6   BANK7   BANK8   BANK9  BANK10  BANK1
      +1  BANK12  BANK13  BANK14  BANK15  BANK16  BANK17  BANK18  BANK19  BANK20  BANK21  BANK22  BANK23  BANK24  BANK25  BANK2
      +6  BANK27  BANK28  BANK29  BANK30  BANK31
  5335 ;;      Params:         0       0       0       0       0       0       0       0       0       0       0       0       
      +0       0       0       0       0       0       0       0       0       0       0       0       0       0       0       
      +0       0       0       0       0       0
  5336 ;;      Locals:         0       0       0       0       0       0       0       0       0       0       0       0       
      +0       0       0       0       0       0       0       0       0       0       0       0       0       0       0       
      +0       0       0       0       0       0
  5337 ;;      Temps:          0       0       0       0       0       0       0       0       0       0       0       0       
      +0       0       0       0       0       0       0       0       0       0       0       0       0       0       0       
      +0       0       0       0       0       0
  5338 ;;      Totals:         0       0       0       0       0       0       0       0       0       0       0       0       
      +0       0       0       0       0       0       0       0       0       0       0       0       0       0       0       
      +0       0       0       0       0       0
  5339 ;;Total ram usage:        0 bytes
  5340 ;; Hardware stack levels used:    1
  5341 ;; Hardware stack levels required when called:    1
  5342 ;; This function calls:
  5343 ;;		Absolute function
  5344 ;;		_TMR5_DefaultInterruptHandler
  5345 ;;		_TMR5_WriteTimer
  5346 ;; This function is called by:
  5347 ;;		Interrupt level 2
  5348 ;; This function uses a non-reentrant model
  5349 ;;
  5350                           
  5351                           	psect	text44
  5352  002EE8                     __ptext44:
  5353                           	callstack 0
  5354  002EE8                     _TMR5_ISR:
  5355                           	callstack 21
  5356                           
  5357                           ;mcc_generated_files/tmr5.c: 171:     PIR8bits.TMR5IF = 0;
  5358                           
  5359                           ;incstack = 0
  5360  002EE8  0139               	movlb	57	; () banked
  5361  002EEA  9DA8               	bcf	168,6,b	;volatile
  5362                           
  5363                           ; BSR set to: 57
  5364                           ;mcc_generated_files/tmr5.c: 172:     TMR5_WriteTimer(timer5ReloadVal);
  5365  002EEC  C08C  F001         	movff	_timer5ReloadVal,TMR5_WriteTimer@timerVal	;volatile
  5366  002EF0  C08D  F002         	movff	_timer5ReloadVal+1,TMR5_WriteTimer@timerVal+1	;volatile
  5367  002EF4  EC12  F018         	call	_TMR5_WriteTimer	;wreg free
  5368                           
  5369                           ; BSR set to: 57
  5370                           ;mcc_generated_files/tmr5.c: 174:     if(TMR5_InterruptHandler)
  5371  002EF8  0100               	movlb	0	; () banked
  5372  002EFA  5175               	movf	_TMR5_InterruptHandler& (0+255),w,b
  5373  002EFC  1176               	iorwf	(_TMR5_InterruptHandler+1)& (0+255),w,b
  5374  002EFE  1177               	iorwf	(_TMR5_InterruptHandler+2)& (0+255),w,b
  5375  002F00  B4D8               	btfsc	status,2,c
  5376  002F02  0011               	retfie		f
  5377                           
  5378                           ; BSR set to: 0
  5379                           ;mcc_generated_files/tmr5.c: 175:     {;mcc_generated_files/tmr5.c: 176:         TMR5_In
      +                          terruptHandler();
  5380  002F04  D801               	call	i2u151_48
  5381  002F06  0011               	retfie		f
  5382  002F08                     i2u151_48:
  5383  002F08  0005               	push	
  5384  002F0A  6EFA               	movwf	pclath,c
  5385  002F0C  5175               	movf	_TMR5_InterruptHandler& (0+255),w,b
  5386  002F0E  6EFD               	movwf	tosl,c
  5387  002F10  5176               	movf	(_TMR5_InterruptHandler+1)& (0+255),w,b
  5388  002F12  6EFE               	movwf	tosh,c
  5389  002F14  5177               	movf	(_TMR5_InterruptHandler+2)& (0+255),w,b
  5390  002F16  6EFF               	movwf	tosu,c
  5391  002F18  50FA               	movf	pclath,w,c
  5392  002F1A  0012               	return		;indir
  5393  002F1C                     __end_of_TMR5_ISR:
  5394                           	callstack 0
  5395                           
  5396 ;; *************** function _TMR5_WriteTimer *****************
  5397 ;; Defined at:
  5398 ;;		line 130 in file "mcc_generated_files/tmr5.c"
  5399 ;; Parameters:    Size  Location     Type
  5400 ;;  timerVal        2    0[COMRAM] unsigned short 
  5401 ;; Auto vars:     Size  Location     Type
  5402 ;;		None
  5403 ;; Return value:  Size  Location     Type
  5404 ;;                  1    wreg      void 
  5405 ;; Registers used:
  5406 ;;		None
  5407 ;; Tracked objects:
  5408 ;;		On entry : 3F/39
  5409 ;;		On exit  : 3F/39
  5410 ;;		Unchanged: 3E/0
  5411 ;; Data sizes:     COMRAM   BANK0   BANK1   BANK2   BANK3   BANK4   BANK5   BANK6   BANK7   BANK8   BANK9  BANK10  BANK1
      +1  BANK12  BANK13  BANK14  BANK15  BANK16  BANK17  BANK18  BANK19  BANK20  BANK21  BANK22  BANK23  BANK24  BANK25  BANK2
      +6  BANK27  BANK28  BANK29  BANK30  BANK31
  5412 ;;      Params:         2       0       0       0       0       0       0       0       0       0       0       0       
      +0       0       0       0       0       0       0       0       0       0       0       0       0       0       0       
      +0       0       0       0       0       0
  5413 ;;      Locals:         0       0       0       0       0       0       0       0       0       0       0       0       
      +0       0       0       0       0       0       0       0       0       0       0       0       0       0       0       
      +0       0       0       0       0       0
  5414 ;;      Temps:          0       0       0       0       0       0       0       0       0       0       0       0       
      +0       0       0       0       0       0       0       0       0       0       0       0       0       0       0       
      +0       0       0       0       0       0
  5415 ;;      Totals:         2       0       0       0       0       0       0       0       0       0       0       0       
      +0       0       0       0       0       0       0       0       0       0       0       0       0       0       0       
      +0       0       0       0       0       0
  5416 ;;Total ram usage:        2 bytes
  5417 ;; Hardware stack levels used:    1
  5418 ;; This function calls:
  5419 ;;		Nothing
  5420 ;; This function is called by:
  5421 ;;		_TMR5_ISR
  5422 ;; This function uses a non-reentrant model
  5423 ;;
  5424                           
  5425                           	psect	text45
  5426  003024                     __ptext45:
  5427                           	callstack 0
  5428  003024                     _TMR5_WriteTimer:
  5429                           	callstack 21
  5430                           
  5431                           ; BSR set to: 57
  5432                           ;mcc_generated_files/tmr5.c: 130: void TMR5_WriteTimer(uint16_t timerVal);mcc_generated_
      +                          files/tmr5.c: 131: {;mcc_generated_files/tmr5.c: 132:     if (T5CONbits.NOT_SYNC == 1)
  5433                           
  5434                           ;incstack = 0
  5435  003024  A49A               	btfss	154,2,c	;volatile
  5436  003026  D009               	goto	i2l404
  5437                           
  5438                           ; BSR set to: 57
  5439                           ;mcc_generated_files/tmr5.c: 133:     {;mcc_generated_files/tmr5.c: 135:         T5CONbi
      +                          ts.TMR5ON = 0;
  5440  003028  909A               	bcf	154,0,c	;volatile
  5441                           
  5442                           ;mcc_generated_files/tmr5.c: 138:         TMR5H = (timerVal >> 8);
  5443  00302A  0060  F00B  FF99   	movff	TMR5_WriteTimer@timerVal+1,16281	;volatile
  5444                           
  5445                           ;mcc_generated_files/tmr5.c: 139:         TMR5L = timerVal;
  5446  003030  0060  F007  FF98   	movff	TMR5_WriteTimer@timerVal,16280	;volatile
  5447                           
  5448                           ;mcc_generated_files/tmr5.c: 142:         T5CONbits.TMR5ON =1;
  5449  003036  809A               	bsf	154,0,c	;volatile
  5450                           
  5451                           ;mcc_generated_files/tmr5.c: 143:     }
  5452  003038  0012               	return	
  5453  00303A                     i2l404:
  5454                           
  5455                           ; BSR set to: 57
  5456                           ;mcc_generated_files/tmr5.c: 145:     {;mcc_generated_files/tmr5.c: 147:         TMR5H =
      +                           (timerVal >> 8);
  5457  00303A  0060  F00B  FF99   	movff	TMR5_WriteTimer@timerVal+1,16281	;volatile
  5458                           
  5459                           ;mcc_generated_files/tmr5.c: 148:         TMR5L = timerVal;
  5460  003040  0060  F007  FF98   	movff	TMR5_WriteTimer@timerVal,16280	;volatile
  5461                           
  5462                           ; BSR set to: 57
  5463  003046  0012               	return		;funcret
  5464  003048                     __end_of_TMR5_WriteTimer:
  5465                           	callstack 0
  5466                           
  5467 ;; *************** function _TMR5_DefaultInterruptHandler *****************
  5468 ;; Defined at:
  5469 ;;		line 185 in file "mcc_generated_files/tmr5.c"
  5470 ;; Parameters:    Size  Location     Type
  5471 ;;		None
  5472 ;; Auto vars:     Size  Location     Type
  5473 ;;		None
  5474 ;; Return value:  Size  Location     Type
  5475 ;;                  1    wreg      void 
  5476 ;; Registers used:
  5477 ;;		wreg, status,2, status,0
  5478 ;; Tracked objects:
  5479 ;;		On entry : 3F/0
  5480 ;;		On exit  : 3F/0
  5481 ;;		Unchanged: 0/0
  5482 ;; Data sizes:     COMRAM   BANK0   BANK1   BANK2   BANK3   BANK4   BANK5   BANK6   BANK7   BANK8   BANK9  BANK10  BANK1
      +1  BANK12  BANK13  BANK14  BANK15  BANK16  BANK17  BANK18  BANK19  BANK20  BANK21  BANK22  BANK23  BANK24  BANK25  BANK2
      +6  BANK27  BANK28  BANK29  BANK30  BANK31
  5483 ;;      Params:         0       0       0       0       0       0       0       0       0       0       0       0       
      +0       0       0       0       0       0       0       0       0       0       0       0       0       0       0       
      +0       0       0       0       0       0
  5484 ;;      Locals:         0       0       0       0       0       0       0       0       0       0       0       0       
      +0       0       0       0       0       0       0       0       0       0       0       0       0       0       0       
      +0       0       0       0       0       0
  5485 ;;      Temps:          1       0       0       0       0       0       0       0       0       0       0       0       
      +0       0       0       0       0       0       0       0       0       0       0       0       0       0       0       
      +0       0       0       0       0       0
  5486 ;;      Totals:         1       0       0       0       0       0       0       0       0       0       0       0       
      +0       0       0       0       0       0       0       0       0       0       0       0       0       0       0       
      +0       0       0       0       0       0
  5487 ;;Total ram usage:        1 bytes
  5488 ;; Hardware stack levels used:    1
  5489 ;; This function calls:
  5490 ;;		Nothing
  5491 ;; This function is called by:
  5492 ;;		_TMR5_Initialize
  5493 ;;		_TMR5_ISR
  5494 ;; This function uses a non-reentrant model
  5495 ;;
  5496                           
  5497                           	psect	text46
  5498  003164                     __ptext46:
  5499                           	callstack 0
  5500  003164                     _TMR5_DefaultInterruptHandler:
  5501                           	callstack 21
  5502                           
  5503                           ; BSR set to: 0
  5504                           
  5505                           ; BSR set to: 0
  5506                           
  5507                           ; BSR set to: 57
  5508                           ;incstack = 0
  5509                           ;mcc_generated_files/tmr5.c: 188:       do { LATEbits.LATE0 = ~LATEbits.LATE0; } while(0
      +                          );
  5510  003164  A0BE               	btfss	190,0,c	;volatile
  5511  003166  D002               	goto	i2u126_40
  5512  003168  0E01               	movlw	1
  5513  00316A  D001               	goto	i2u126_46
  5514  00316C                     i2u126_40:
  5515  00316C  0E00               	movlw	0
  5516  00316E                     i2u126_46:
  5517  00316E  0AFF               	xorlw	255
  5518  003170  6E01               	movwf	??_TMR5_DefaultInterruptHandler^0,c
  5519  003172  50BE               	movf	190,w,c	;volatile
  5520  003174  1801               	xorwf	??_TMR5_DefaultInterruptHandler^0,w,c
  5521  003176  0BFE               	andlw	-2
  5522  003178  1801               	xorwf	??_TMR5_DefaultInterruptHandler^0,w,c
  5523  00317A  6EBE               	movwf	190,c	;volatile
  5524                           
  5525                           ; BSR set to: 0
  5526                           ;mcc_generated_files/tmr5.c: 189:       max_heat_time++;
  5527  00317C  4B8E               	infsnz	_max_heat_time& (0+255),f,b	;volatile
  5528  00317E  2B8F               	incf	(_max_heat_time+1)& (0+255),f,b	;volatile
  5529                           
  5530                           ; BSR set to: 0
  5531  003180  0012               	return		;funcret
  5532  003182                     __end_of_TMR5_DefaultInterruptHandler:
  5533                           	callstack 0
  5534                           
  5535 ;; *************** function _TMR0_ISR *****************
  5536 ;; Defined at:
  5537 ;;		line 138 in file "mcc_generated_files/tmr0.c"
  5538 ;; Parameters:    Size  Location     Type
  5539 ;;		None
  5540 ;; Auto vars:     Size  Location     Type
  5541 ;;  i               1    4[COMRAM] unsigned char 
  5542 ;; Return value:  Size  Location     Type
  5543 ;;                  1    wreg      void 
  5544 ;; Registers used:
  5545 ;;		wreg, fsr2l, fsr2h, status,2, status,0, pclath, tosl, prodl, prodh, cstack
  5546 ;; Tracked objects:
  5547 ;;		On entry : 0/0
  5548 ;;		On exit  : 3F/39
  5549 ;;		Unchanged: 0/0
  5550 ;; Data sizes:     COMRAM   BANK0   BANK1   BANK2   BANK3   BANK4   BANK5   BANK6   BANK7   BANK8   BANK9  BANK10  BANK1
      +1  BANK12  BANK13  BANK14  BANK15  BANK16  BANK17  BANK18  BANK19  BANK20  BANK21  BANK22  BANK23  BANK24  BANK25  BANK2
      +6  BANK27  BANK28  BANK29  BANK30  BANK31
  5551 ;;      Params:         0       0       0       0       0       0       0       0       0       0       0       0       
      +0       0       0       0       0       0       0       0       0       0       0       0       0       0       0       
      +0       0       0       0       0       0
  5552 ;;      Locals:         1       0       0       0       0       0       0       0       0       0       0       0       
      +0       0       0       0       0       0       0       0       0       0       0       0       0       0       0       
      +0       0       0       0       0       0
  5553 ;;      Temps:          2       0       0       0       0       0       0       0       0       0       0       0       
      +0       0       0       0       0       0       0       0       0       0       0       0       0       0       0       
      +0       0       0       0       0       0
  5554 ;;      Totals:         3       0       0       0       0       0       0       0       0       0       0       0       
      +0       0       0       0       0       0       0       0       0       0       0       0       0       0       0       
      +0       0       0       0       0       0
  5555 ;;Total ram usage:        3 bytes
  5556 ;; Hardware stack levels used:    1
  5557 ;; Hardware stack levels required when called:    1
  5558 ;; This function calls:
  5559 ;;		Absolute function
  5560 ;;		_TMR0_DefaultInterruptHandler
  5561 ;; This function is called by:
  5562 ;;		Interrupt level 2
  5563 ;; This function uses a non-reentrant model
  5564 ;;
  5565                           
  5566                           	psect	text47
  5567  002C1C                     __ptext47:
  5568                           	callstack 0
  5569  002C1C                     _TMR0_ISR:
  5570                           	callstack 21
  5571                           
  5572                           ;mcc_generated_files/tmr0.c: 141:  PIR3bits.TMR0IF = 0;
  5573                           
  5574                           ; BSR set to: 0
  5575                           ;incstack = 0
  5576  002C1C  0139               	movlb	57	; () banked
  5577  002C1E  9FA3               	bcf	163,7,b	;volatile
  5578                           
  5579                           ;mcc_generated_files/tmr0.c: 143:  TMR0H = timer0ReloadVal16bit >> 8;
  5580  002C20  0060  F14F  FFB7   	movff	_timer0ReloadVal16bit+1,16311	;volatile
  5581                           
  5582                           ;mcc_generated_files/tmr0.c: 144:  TMR0L = (uint8_t) timer0ReloadVal16bit;
  5583  002C26  0060  F14B  FFB6   	movff	_timer0ReloadVal16bit,16310	;volatile
  5584                           
  5585                           ; BSR set to: 57
  5586                           ;mcc_generated_files/tmr0.c: 146:     if(TMR0_InterruptHandler)
  5587  002C2C  0100               	movlb	0	; () banked
  5588  002C2E  5172               	movf	_TMR0_InterruptHandler& (0+255),w,b
  5589  002C30  1173               	iorwf	(_TMR0_InterruptHandler+1)& (0+255),w,b
  5590  002C32  1174               	iorwf	(_TMR0_InterruptHandler+2)& (0+255),w,b
  5591  002C34  B4D8               	btfsc	status,2,c
  5592  002C36  D00C               	goto	i2u153_49
  5593                           
  5594                           ; BSR set to: 0
  5595                           ;mcc_generated_files/tmr0.c: 147:     {;mcc_generated_files/tmr0.c: 148:   TMR0_Interrup
      +                          tHandler();
  5596  002C38  D801               	call	i2u153_48
  5597  002C3A  D00A               	goto	i2u153_49
  5598  002C3C                     i2u153_48:
  5599  002C3C  0005               	push	
  5600  002C3E  6EFA               	movwf	pclath,c
  5601  002C40  5172               	movf	_TMR0_InterruptHandler& (0+255),w,b
  5602  002C42  6EFD               	movwf	tosl,c
  5603  002C44  5173               	movf	(_TMR0_InterruptHandler+1)& (0+255),w,b
  5604  002C46  6EFE               	movwf	tosh,c
  5605  002C48  5174               	movf	(_TMR0_InterruptHandler+2)& (0+255),w,b
  5606  002C4A  6EFF               	movwf	tosu,c
  5607  002C4C  50FA               	movf	pclath,w,c
  5608  002C4E  0012               	return		;indir
  5609  002C50                     i2u153_49:
  5610                           
  5611                           ;mcc_generated_files/tmr0.c: 152:  uint8_t i;;mcc_generated_files/tmr0.c: 155:  for (i =
      +                           0; i < TMR_COUNT; i++) {
  5612  002C50  0E00               	movlw	0
  5613  002C52  6E05               	movwf	TMR0_ISR@i^0,c
  5614  002C54                     i2l2996:
  5615                           
  5616                           ;mcc_generated_files/tmr0.c: 156:   if (tickCount[i] != 0) {
  5617  002C54  5005               	movf	TMR0_ISR@i^0,w,c
  5618  002C56  0D02               	mullw	2
  5619  002C58  0EC0               	movlw	low _tickCount
  5620  002C5A  24F3               	addwf	243,w,c
  5621  002C5C  6ED9               	movwf	fsr2l,c
  5622  002C5E  0E01               	movlw	high _tickCount
  5623  002C60  20F4               	addwfc	prodh,w,c
  5624  002C62  6EDA               	movwf	fsr2h,c
  5625  002C64  50DE               	movf	postinc2,w,c
  5626  002C66  10DE               	iorwf	postinc2,w,c
  5627  002C68  B4D8               	btfsc	status,2,c
  5628  002C6A  D00B               	goto	i2l3000
  5629                           
  5630                           ;mcc_generated_files/tmr0.c: 157:    tickCount[i]--;
  5631  002C6C  5005               	movf	TMR0_ISR@i^0,w,c
  5632  002C6E  0D02               	mullw	2
  5633  002C70  0EC0               	movlw	low _tickCount
  5634  002C72  24F3               	addwf	243,w,c
  5635  002C74  6ED9               	movwf	fsr2l,c
  5636  002C76  0E01               	movlw	high _tickCount
  5637  002C78  20F4               	addwfc	prodh,w,c
  5638  002C7A  6EDA               	movwf	fsr2h,c
  5639  002C7C  06DE               	decf	postinc2,f,c
  5640  002C7E  0E00               	movlw	0
  5641  002C80  5ADD               	subwfb	postdec2,f,c
  5642  002C82                     i2l3000:
  5643                           
  5644                           ;mcc_generated_files/tmr0.c: 159:  }
  5645  002C82  2A05               	incf	TMR0_ISR@i^0,f,c
  5646  002C84  0E04               	movlw	4
  5647  002C86  6405               	cpfsgt	TMR0_ISR@i^0,c
  5648  002C88  D7E5               	goto	i2l2996
  5649                           
  5650                           ;mcc_generated_files/tmr0.c: 160:  PIR3bits.TMR0IF = 0;
  5651  002C8A  0139               	movlb	57	; () banked
  5652  002C8C  9FA3               	bcf	163,7,b	;volatile
  5653                           
  5654                           ;mcc_generated_files/tmr0.c: 161:  TMR0H = timer0ReloadVal16bit >> 8;
  5655  002C8E  0060  F14F  FFB7   	movff	_timer0ReloadVal16bit+1,16311	;volatile
  5656                           
  5657                           ;mcc_generated_files/tmr0.c: 162:  TMR0L = (uint8_t) timer0ReloadVal16bit;
  5658  002C94  0060  F14B  FFB6   	movff	_timer0ReloadVal16bit,16310	;volatile
  5659                           
  5660                           ; BSR set to: 57
  5661  002C9A  0011               	retfie		f
  5662  002C9C                     __end_of_TMR0_ISR:
  5663                           	callstack 0
  5664                           
  5665 ;; *************** function _TMR0_DefaultInterruptHandler *****************
  5666 ;; Defined at:
  5667 ;;		line 170 in file "mcc_generated_files/tmr0.c"
  5668 ;; Parameters:    Size  Location     Type
  5669 ;;		None
  5670 ;; Auto vars:     Size  Location     Type
  5671 ;;		None
  5672 ;; Return value:  Size  Location     Type
  5673 ;;                  1    wreg      void 
  5674 ;; Registers used:
  5675 ;;		None
  5676 ;; Tracked objects:
  5677 ;;		On entry : 3F/0
  5678 ;;		On exit  : 3F/0
  5679 ;;		Unchanged: 3F/0
  5680 ;; Data sizes:     COMRAM   BANK0   BANK1   BANK2   BANK3   BANK4   BANK5   BANK6   BANK7   BANK8   BANK9  BANK10  BANK1
      +1  BANK12  BANK13  BANK14  BANK15  BANK16  BANK17  BANK18  BANK19  BANK20  BANK21  BANK22  BANK23  BANK24  BANK25  BANK2
      +6  BANK27  BANK28  BANK29  BANK30  BANK31
  5681 ;;      Params:         0       0       0       0       0       0       0       0       0       0       0       0       
      +0       0       0       0       0       0       0       0       0       0       0       0       0       0       0       
      +0       0       0       0       0       0
  5682 ;;      Locals:         0       0       0       0       0       0       0       0       0       0       0       0       
      +0       0       0       0       0       0       0       0       0       0       0       0       0       0       0       
      +0       0       0       0       0       0
  5683 ;;      Temps:          0       0       0       0       0       0       0       0       0       0       0       0       
      +0       0       0       0       0       0       0       0       0       0       0       0       0       0       0       
      +0       0       0       0       0       0
  5684 ;;      Totals:         0       0       0       0       0       0       0       0       0       0       0       0       
      +0       0       0       0       0       0       0       0       0       0       0       0       0       0       0       
      +0       0       0       0       0       0
  5685 ;;Total ram usage:        0 bytes
  5686 ;; Hardware stack levels used:    1
  5687 ;; This function calls:
  5688 ;;		Nothing
  5689 ;; This function is called by:
  5690 ;;		_TMR0_Initialize
  5691 ;;		_TMR0_ISR
  5692 ;; This function uses a non-reentrant model
  5693 ;;
  5694                           
  5695                           	psect	text48
  5696  003292                     __ptext48:
  5697                           	callstack 0
  5698  003292                     _TMR0_DefaultInterruptHandler:
  5699                           	callstack 21
  5700                           
  5701                           ; BSR set to: 0
  5702                           
  5703                           ; BSR set to: 57
  5704                           ;incstack = 0
  5705  003292  0012               	return		;funcret
  5706  003294                     __end_of_TMR0_DefaultInterruptHandler:
  5707                           	callstack 0
  5708                           
  5709 ;; *************** function _UART2_tx_vect_isr *****************
  5710 ;; Defined at:
  5711 ;;		line 218 in file "mcc_generated_files/uart2.c"
  5712 ;; Parameters:    Size  Location     Type
  5713 ;;		None
  5714 ;; Auto vars:     Size  Location     Type
  5715 ;;		None
  5716 ;; Return value:  Size  Location     Type
  5717 ;;                  1    wreg      void 
  5718 ;; Registers used:
  5719 ;;		wreg, fsr2l, fsr2h, status,2, status,0, pclath, tosl, cstack
  5720 ;; Tracked objects:
  5721 ;;		On entry : 0/0
  5722 ;;		On exit  : 0/0
  5723 ;;		Unchanged: 0/0
  5724 ;; Data sizes:     COMRAM   BANK0   BANK1   BANK2   BANK3   BANK4   BANK5   BANK6   BANK7   BANK8   BANK9  BANK10  BANK1
      +1  BANK12  BANK13  BANK14  BANK15  BANK16  BANK17  BANK18  BANK19  BANK20  BANK21  BANK22  BANK23  BANK24  BANK25  BANK2
      +6  BANK27  BANK28  BANK29  BANK30  BANK31
  5725 ;;      Params:         0       0       0       0       0       0       0       0       0       0       0       0       
      +0       0       0       0       0       0       0       0       0       0       0       0       0       0       0       
      +0       0       0       0       0       0
  5726 ;;      Locals:         0       0       0       0       0       0       0       0       0       0       0       0       
      +0       0       0       0       0       0       0       0       0       0       0       0       0       0       0       
      +0       0       0       0       0       0
  5727 ;;      Temps:          0       0       0       0       0       0       0       0       0       0       0       0       
      +0       0       0       0       0       0       0       0       0       0       0       0       0       0       0       
      +0       0       0       0       0       0
  5728 ;;      Totals:         0       0       0       0       0       0       0       0       0       0       0       0       
      +0       0       0       0       0       0       0       0       0       0       0       0       0       0       0       
      +0       0       0       0       0       0
  5729 ;;Total ram usage:        0 bytes
  5730 ;; Hardware stack levels used:    1
  5731 ;; Hardware stack levels required when called:    1
  5732 ;; This function calls:
  5733 ;;		Absolute function
  5734 ;;		_UART2_Transmit_ISR
  5735 ;; This function is called by:
  5736 ;;		Interrupt level 2
  5737 ;; This function uses a non-reentrant model
  5738 ;;
  5739                           
  5740                           	psect	text49
  5741  003048                     __ptext49:
  5742                           	callstack 0
  5743  003048                     _UART2_tx_vect_isr:
  5744                           	callstack 21
  5745                           
  5746                           ;mcc_generated_files/uart2.c: 220:     if(UART2_TxInterruptHandler)
  5747                           
  5748                           ; BSR set to: 0
  5749                           ;incstack = 0
  5750  003048  0100               	movlb	0	; () banked
  5751  00304A  517E               	movf	_UART2_TxInterruptHandler& (0+255),w,b
  5752  00304C  117F               	iorwf	(_UART2_TxInterruptHandler+1)& (0+255),w,b
  5753  00304E  1180               	iorwf	(_UART2_TxInterruptHandler+2)& (0+255),w,b
  5754  003050  B4D8               	btfsc	status,2,c
  5755  003052  0011               	retfie		f
  5756                           
  5757                           ; BSR set to: 0
  5758                           ;mcc_generated_files/uart2.c: 221:     {;mcc_generated_files/uart2.c: 222:         UART2
      +                          _TxInterruptHandler();
  5759  003054  D801               	call	i2u157_48
  5760  003056  0011               	retfie		f
  5761  003058                     i2u157_48:
  5762  003058  0005               	push	
  5763  00305A  6EFA               	movwf	pclath,c
  5764  00305C  517E               	movf	_UART2_TxInterruptHandler& (0+255),w,b
  5765  00305E  6EFD               	movwf	tosl,c
  5766  003060  517F               	movf	(_UART2_TxInterruptHandler+1)& (0+255),w,b
  5767  003062  6EFE               	movwf	tosh,c
  5768  003064  5180               	movf	(_UART2_TxInterruptHandler+2)& (0+255),w,b
  5769  003066  6EFF               	movwf	tosu,c
  5770  003068  50FA               	movf	pclath,w,c
  5771  00306A  0012               	return		;indir
  5772  00306C                     __end_of_UART2_tx_vect_isr:
  5773                           	callstack 0
  5774                           
  5775 ;; *************** function _UART2_Transmit_ISR *****************
  5776 ;; Defined at:
  5777 ;;		line 236 in file "mcc_generated_files/uart2.c"
  5778 ;; Parameters:    Size  Location     Type
  5779 ;;		None
  5780 ;; Auto vars:     Size  Location     Type
  5781 ;;		None
  5782 ;; Return value:  Size  Location     Type
  5783 ;;                  1    wreg      void 
  5784 ;; Registers used:
  5785 ;;		wreg, fsr2l, fsr2h, status,2, status,0
  5786 ;; Tracked objects:
  5787 ;;		On entry : 3F/0
  5788 ;;		On exit  : 6/0
  5789 ;;		Unchanged: 0/0
  5790 ;; Data sizes:     COMRAM   BANK0   BANK1   BANK2   BANK3   BANK4   BANK5   BANK6   BANK7   BANK8   BANK9  BANK10  BANK1
      +1  BANK12  BANK13  BANK14  BANK15  BANK16  BANK17  BANK18  BANK19  BANK20  BANK21  BANK22  BANK23  BANK24  BANK25  BANK2
      +6  BANK27  BANK28  BANK29  BANK30  BANK31
  5791 ;;      Params:         0       0       0       0       0       0       0       0       0       0       0       0       
      +0       0       0       0       0       0       0       0       0       0       0       0       0       0       0       
      +0       0       0       0       0       0
  5792 ;;      Locals:         0       0       0       0       0       0       0       0       0       0       0       0       
      +0       0       0       0       0       0       0       0       0       0       0       0       0       0       0       
      +0       0       0       0       0       0
  5793 ;;      Temps:          0       0       0       0       0       0       0       0       0       0       0       0       
      +0       0       0       0       0       0       0       0       0       0       0       0       0       0       0       
      +0       0       0       0       0       0
  5794 ;;      Totals:         0       0       0       0       0       0       0       0       0       0       0       0       
      +0       0       0       0       0       0       0       0       0       0       0       0       0       0       0       
      +0       0       0       0       0       0
  5795 ;;Total ram usage:        0 bytes
  5796 ;; Hardware stack levels used:    1
  5797 ;; This function calls:
  5798 ;;		Nothing
  5799 ;; This function is called by:
  5800 ;;		_UART2_Initialize
  5801 ;;		_UART2_tx_vect_isr
  5802 ;; This function uses a non-reentrant model
  5803 ;;
  5804                           
  5805                           	psect	text50
  5806  002F1C                     __ptext50:
  5807                           	callstack 0
  5808  002F1C                     _UART2_Transmit_ISR:
  5809                           	callstack 21
  5810                           
  5811                           ; BSR set to: 0
  5812                           ;mcc_generated_files/uart2.c: 239:     if(sizeof(uart2TxBuffer) > uart2TxBufferRemaining
      +                          )
  5813                           
  5814                           ;incstack = 0
  5815  002F1C  0E40               	movlw	64
  5816  002F1E  6198               	cpfslt	_uart2TxBufferRemaining& (0+255),b
  5817  002F20  D012               	goto	i2l616
  5818                           
  5819                           ; BSR set to: 0
  5820                           ;mcc_generated_files/uart2.c: 240:     {;mcc_generated_files/uart2.c: 241:         U2TXB
      +                           = uart2TxBuffer[uart2TxTail++];
  5821  002F22  0E80               	movlw	low _uart2TxBuffer
  5822  002F24  2457               	addwf	_uart2TxTail^0,w,c	;volatile
  5823  002F26  6ED9               	movwf	fsr2l,c
  5824  002F28  6ADA               	clrf	fsr2h,c
  5825  002F2A  0E01               	movlw	high _uart2TxBuffer
  5826  002F2C  22DA               	addwfc	fsr2h,f,c
  5827  002F2E  50DF               	movf	indf2,w,c
  5828  002F30  013D               	movlb	61	; () banked
  5829  002F32  6FD2               	movwf	210,b	;volatile
  5830                           
  5831                           ; BSR set to: 61
  5832  002F34  2A57               	incf	_uart2TxTail^0,f,c	;volatile
  5833                           
  5834                           ; BSR set to: 61
  5835                           ;mcc_generated_files/uart2.c: 242:        if(sizeof(uart2TxBuffer) <= uart2TxTail)
  5836  002F36  0E3F               	movlw	63
  5837  002F38  6457               	cpfsgt	_uart2TxTail^0,c
  5838  002F3A  D002               	goto	i2l2870
  5839                           
  5840                           ; BSR set to: 61
  5841                           ;mcc_generated_files/uart2.c: 243:         {;mcc_generated_files/uart2.c: 244:          
      +                             uart2TxTail = 0;
  5842  002F3C  0E00               	movlw	0
  5843  002F3E  6E57               	movwf	_uart2TxTail^0,c	;volatile
  5844  002F40                     i2l2870:
  5845                           
  5846                           ; BSR set to: 61
  5847                           ;mcc_generated_files/uart2.c: 246:         uart2TxBufferRemaining++;
  5848  002F40  0100               	movlb	0	; () banked
  5849  002F42  2B98               	incf	_uart2TxBufferRemaining& (0+255),f,b	;volatile
  5850                           
  5851                           ;mcc_generated_files/uart2.c: 247:     }
  5852  002F44  0012               	return	
  5853  002F46                     i2l616:
  5854                           
  5855                           ; BSR set to: 0
  5856                           ;mcc_generated_files/uart2.c: 249:     {;mcc_generated_files/uart2.c: 250:         PIE6b
      +                          its.U2TXIE = 0;
  5857  002F46  0139               	movlb	57	; () banked
  5858  002F48  9796               	bcf	150,3,b	;volatile
  5859  002F4A  0012               	return		;funcret
  5860  002F4C                     __end_of_UART2_Transmit_ISR:
  5861                           	callstack 0
  5862                           
  5863 ;; *************** function _UART2_rx_vect_isr *****************
  5864 ;; Defined at:
  5865 ;;		line 226 in file "mcc_generated_files/uart2.c"
  5866 ;; Parameters:    Size  Location     Type
  5867 ;;		None
  5868 ;; Auto vars:     Size  Location     Type
  5869 ;;		None
  5870 ;; Return value:  Size  Location     Type
  5871 ;;                  1    wreg      void 
  5872 ;; Registers used:
  5873 ;;		wreg, fsr2l, fsr2h, status,2, status,0, pclath, tosl, cstack
  5874 ;; Tracked objects:
  5875 ;;		On entry : 0/0
  5876 ;;		On exit  : 0/0
  5877 ;;		Unchanged: 0/0
  5878 ;; Data sizes:     COMRAM   BANK0   BANK1   BANK2   BANK3   BANK4   BANK5   BANK6   BANK7   BANK8   BANK9  BANK10  BANK1
      +1  BANK12  BANK13  BANK14  BANK15  BANK16  BANK17  BANK18  BANK19  BANK20  BANK21  BANK22  BANK23  BANK24  BANK25  BANK2
      +6  BANK27  BANK28  BANK29  BANK30  BANK31
  5879 ;;      Params:         0       0       0       0       0       0       0       0       0       0       0       0       
      +0       0       0       0       0       0       0       0       0       0       0       0       0       0       0       
      +0       0       0       0       0       0
  5880 ;;      Locals:         0       0       0       0       0       0       0       0       0       0       0       0       
      +0       0       0       0       0       0       0       0       0       0       0       0       0       0       0       
      +0       0       0       0       0       0
  5881 ;;      Temps:          0       0       0       0       0       0       0       0       0       0       0       0       
      +0       0       0       0       0       0       0       0       0       0       0       0       0       0       0       
      +0       0       0       0       0       0
  5882 ;;      Totals:         0       0       0       0       0       0       0       0       0       0       0       0       
      +0       0       0       0       0       0       0       0       0       0       0       0       0       0       0       
      +0       0       0       0       0       0
  5883 ;;Total ram usage:        0 bytes
  5884 ;; Hardware stack levels used:    1
  5885 ;; Hardware stack levels required when called:    3
  5886 ;; This function calls:
  5887 ;;		Absolute function
  5888 ;;		_UART2_Receive_ISR
  5889 ;; This function is called by:
  5890 ;;		Interrupt level 2
  5891 ;; This function uses a non-reentrant model
  5892 ;;
  5893                           
  5894                           	psect	text51
  5895  00306C                     __ptext51:
  5896                           	callstack 0
  5897  00306C                     _UART2_rx_vect_isr:
  5898                           	callstack 19
  5899                           
  5900                           ;mcc_generated_files/uart2.c: 228:     if(UART2_RxInterruptHandler)
  5901                           
  5902                           ;incstack = 0
  5903  00306C  0100               	movlb	0	; () banked
  5904  00306E  5181               	movf	_UART2_RxInterruptHandler& (0+255),w,b
  5905  003070  1182               	iorwf	(_UART2_RxInterruptHandler+1)& (0+255),w,b
  5906  003072  1183               	iorwf	(_UART2_RxInterruptHandler+2)& (0+255),w,b
  5907  003074  B4D8               	btfsc	status,2,c
  5908  003076  0011               	retfie		f
  5909                           
  5910                           ; BSR set to: 0
  5911                           ;mcc_generated_files/uart2.c: 229:     {;mcc_generated_files/uart2.c: 230:         UART2
      +                          _RxInterruptHandler();
  5912  003078  D801               	call	i2u159_48
  5913  00307A  0011               	retfie		f
  5914  00307C                     i2u159_48:
  5915  00307C  0005               	push	
  5916  00307E  6EFA               	movwf	pclath,c
  5917  003080  5181               	movf	_UART2_RxInterruptHandler& (0+255),w,b
  5918  003082  6EFD               	movwf	tosl,c
  5919  003084  5182               	movf	(_UART2_RxInterruptHandler+1)& (0+255),w,b
  5920  003086  6EFE               	movwf	tosh,c
  5921  003088  5183               	movf	(_UART2_RxInterruptHandler+2)& (0+255),w,b
  5922  00308A  6EFF               	movwf	tosu,c
  5923  00308C  50FA               	movf	pclath,w,c
  5924  00308E  0012               	return		;indir
  5925  003090                     __end_of_UART2_rx_vect_isr:
  5926                           	callstack 0
  5927                           
  5928 ;; *************** function _UART2_Receive_ISR *****************
  5929 ;; Defined at:
  5930 ;;		line 256 in file "mcc_generated_files/uart2.c"
  5931 ;; Parameters:    Size  Location     Type
  5932 ;;		None
  5933 ;; Auto vars:     Size  Location     Type
  5934 ;;		None
  5935 ;; Return value:  Size  Location     Type
  5936 ;;                  1    wreg      void 
  5937 ;; Registers used:
  5938 ;;		wreg, fsr2l, fsr2h, status,2, status,0, pclath, tosl, cstack
  5939 ;; Tracked objects:
  5940 ;;		On entry : 3F/0
  5941 ;;		On exit  : 0/0
  5942 ;;		Unchanged: 0/0
  5943 ;; Data sizes:     COMRAM   BANK0   BANK1   BANK2   BANK3   BANK4   BANK5   BANK6   BANK7   BANK8   BANK9  BANK10  BANK1
      +1  BANK12  BANK13  BANK14  BANK15  BANK16  BANK17  BANK18  BANK19  BANK20  BANK21  BANK22  BANK23  BANK24  BANK25  BANK2
      +6  BANK27  BANK28  BANK29  BANK30  BANK31
  5944 ;;      Params:         0       0       0       0       0       0       0       0       0       0       0       0       
      +0       0       0       0       0       0       0       0       0       0       0       0       0       0       0       
      +0       0       0       0       0       0
  5945 ;;      Locals:         0       0       0       0       0       0       0       0       0       0       0       0       
      +0       0       0       0       0       0       0       0       0       0       0       0       0       0       0       
      +0       0       0       0       0       0
  5946 ;;      Temps:          0       0       0       0       0       0       0       0       0       0       0       0       
      +0       0       0       0       0       0       0       0       0       0       0       0       0       0       0       
      +0       0       0       0       0       0
  5947 ;;      Totals:         0       0       0       0       0       0       0       0       0       0       0       0       
      +0       0       0       0       0       0       0       0       0       0       0       0       0       0       0       
      +0       0       0       0       0       0
  5948 ;;Total ram usage:        0 bytes
  5949 ;; Hardware stack levels used:    1
  5950 ;; Hardware stack levels required when called:    2
  5951 ;; This function calls:
  5952 ;;		Absolute function
  5953 ;;		_UART2_DefaultErrorHandler
  5954 ;;		_UART2_DefaultFramingErrorHandler
  5955 ;;		_UART2_DefaultOverrunErrorHandler
  5956 ;;		_UART2_RxDataHandler
  5957 ;; This function is called by:
  5958 ;;		_UART2_Initialize
  5959 ;;		_UART2_rx_vect_isr
  5960 ;; This function uses a non-reentrant model
  5961 ;;
  5962                           
  5963                           	psect	text52
  5964  00290E                     __ptext52:
  5965                           	callstack 0
  5966  00290E                     _UART2_Receive_ISR:
  5967                           	callstack 19
  5968                           
  5969                           ; BSR set to: 0
  5970                           ;mcc_generated_files/uart2.c: 259:     uart2RxStatusBuffer[uart2RxHead].status = 0;
  5971                           
  5972                           ;incstack = 0
  5973  00290E  0E40               	movlw	low _uart2RxStatusBuffer
  5974  002910  2456               	addwf	_uart2RxHead^0,w,c	;volatile
  5975  002912  6ED9               	movwf	fsr2l,c
  5976  002914  6ADA               	clrf	fsr2h,c
  5977  002916  0E01               	movlw	high _uart2RxStatusBuffer
  5978  002918  22DA               	addwfc	fsr2h,f,c
  5979  00291A  0E00               	movlw	0
  5980  00291C  6EDF               	movwf	indf2,c
  5981                           
  5982                           ; BSR set to: 0
  5983                           ;mcc_generated_files/uart2.c: 261:     if(U2ERRIRbits.FERIF){
  5984  00291E  013D               	movlb	61	; () banked
  5985  002920  A7E1               	btfss	225,3,b	;volatile
  5986  002922  D015               	goto	i2u130_49
  5987                           
  5988                           ; BSR set to: 61
  5989                           ;mcc_generated_files/uart2.c: 262:         uart2RxStatusBuffer[uart2RxHead].ferr = 1;
  5990  002924  0E40               	movlw	low _uart2RxStatusBuffer
  5991  002926  2456               	addwf	_uart2RxHead^0,w,c	;volatile
  5992  002928  6ED9               	movwf	fsr2l,c
  5993  00292A  6ADA               	clrf	fsr2h,c
  5994  00292C  0E01               	movlw	high _uart2RxStatusBuffer
  5995  00292E  22DA               	addwfc	fsr2h,f,c
  5996  002930  0101               	movlb	1	; () banked
  5997  002932  82DF               	bsf	indf2,1,c
  5998                           
  5999                           ; BSR set to: 1
  6000                           ;mcc_generated_files/uart2.c: 263:         UART2_FramingErrorHandler();
  6001  002934  D801               	call	i2u130_48
  6002  002936  D00B               	goto	i2u130_49
  6003  002938                     i2u130_48:
  6004  002938  0005               	push	
  6005  00293A  6EFA               	movwf	pclath,c
  6006  00293C  0100               	movlb	0	; () banked
  6007  00293E  516F               	movf	_UART2_FramingErrorHandler& (0+255),w,b
  6008  002940  6EFD               	movwf	tosl,c
  6009  002942  5170               	movf	(_UART2_FramingErrorHandler+1)& (0+255),w,b
  6010  002944  6EFE               	movwf	tosh,c
  6011  002946  5171               	movf	(_UART2_FramingErrorHandler+2)& (0+255),w,b
  6012  002948  6EFF               	movwf	tosu,c
  6013  00294A  50FA               	movf	pclath,w,c
  6014  00294C  0012               	return		;indir
  6015  00294E                     i2u130_49:
  6016                           
  6017                           ;mcc_generated_files/uart2.c: 266:     if(U2ERRIRbits.RXFOIF){
  6018  00294E  013D               	movlb	61	; () banked
  6019  002950  A3E1               	btfss	225,1,b	;volatile
  6020  002952  D015               	goto	i2u132_49
  6021                           
  6022                           ; BSR set to: 61
  6023                           ;mcc_generated_files/uart2.c: 267:         uart2RxStatusBuffer[uart2RxHead].oerr = 1;
  6024  002954  0E40               	movlw	low _uart2RxStatusBuffer
  6025  002956  2456               	addwf	_uart2RxHead^0,w,c	;volatile
  6026  002958  6ED9               	movwf	fsr2l,c
  6027  00295A  6ADA               	clrf	fsr2h,c
  6028  00295C  0E01               	movlw	high _uart2RxStatusBuffer
  6029  00295E  22DA               	addwfc	fsr2h,f,c
  6030  002960  0101               	movlb	1	; () banked
  6031  002962  84DF               	bsf	indf2,2,c
  6032                           
  6033                           ; BSR set to: 1
  6034                           ;mcc_generated_files/uart2.c: 268:         UART2_OverrunErrorHandler();
  6035  002964  D801               	call	i2u132_48
  6036  002966  D00B               	goto	i2u132_49
  6037  002968                     i2u132_48:
  6038  002968  0005               	push	
  6039  00296A  6EFA               	movwf	pclath,c
  6040  00296C  0100               	movlb	0	; () banked
  6041  00296E  516C               	movf	_UART2_OverrunErrorHandler& (0+255),w,b
  6042  002970  6EFD               	movwf	tosl,c
  6043  002972  516D               	movf	(_UART2_OverrunErrorHandler+1)& (0+255),w,b
  6044  002974  6EFE               	movwf	tosh,c
  6045  002976  516E               	movf	(_UART2_OverrunErrorHandler+2)& (0+255),w,b
  6046  002978  6EFF               	movwf	tosu,c
  6047  00297A  50FA               	movf	pclath,w,c
  6048  00297C  0012               	return		;indir
  6049  00297E                     i2u132_49:
  6050                           
  6051                           ;mcc_generated_files/uart2.c: 271:     if(uart2RxStatusBuffer[uart2RxHead].status){
  6052  00297E  0E40               	movlw	low _uart2RxStatusBuffer
  6053  002980  2456               	addwf	_uart2RxHead^0,w,c	;volatile
  6054  002982  6ED9               	movwf	fsr2l,c
  6055  002984  6ADA               	clrf	fsr2h,c
  6056  002986  0E01               	movlw	high _uart2RxStatusBuffer
  6057  002988  22DA               	addwfc	fsr2h,f,c
  6058  00298A  50DF               	movf	indf2,w,c
  6059  00298C  B4D8               	btfsc	status,2,c
  6060  00298E  D00D               	goto	i2l2890
  6061                           
  6062                           ;mcc_generated_files/uart2.c: 272:         UART2_ErrorHandler();
  6063  002990  D801               	call	i2u134_48
  6064  002992  0012               	return	
  6065  002994                     i2u134_48:
  6066  002994  0005               	push	
  6067  002996  6EFA               	movwf	pclath,c
  6068  002998  0100               	movlb	0	; () banked
  6069  00299A  5169               	movf	_UART2_ErrorHandler& (0+255),w,b
  6070  00299C  6EFD               	movwf	tosl,c
  6071  00299E  516A               	movf	(_UART2_ErrorHandler+1)& (0+255),w,b
  6072  0029A0  6EFE               	movwf	tosh,c
  6073  0029A2  516B               	movf	(_UART2_ErrorHandler+2)& (0+255),w,b
  6074  0029A4  6EFF               	movwf	tosu,c
  6075  0029A6  50FA               	movf	pclath,w,c
  6076  0029A8  0012               	return		;indir
  6077  0029AA                     i2l2890:
  6078                           
  6079                           ;mcc_generated_files/uart2.c: 274:         UART2_RxDataHandler();
  6080  0029AA  EC48  F018         	call	_UART2_RxDataHandler	;wreg free
  6081  0029AE  0012               	return		;funcret
  6082  0029B0                     __end_of_UART2_Receive_ISR:
  6083                           	callstack 0
  6084                           
  6085 ;; *************** function _UART2_DefaultOverrunErrorHandler *****************
  6086 ;; Defined at:
  6087 ;;		line 292 in file "mcc_generated_files/uart2.c"
  6088 ;; Parameters:    Size  Location     Type
  6089 ;;		None
  6090 ;; Auto vars:     Size  Location     Type
  6091 ;;		None
  6092 ;; Return value:  Size  Location     Type
  6093 ;;                  1    wreg      void 
  6094 ;; Registers used:
  6095 ;;		None
  6096 ;; Tracked objects:
  6097 ;;		On entry : 3F/0
  6098 ;;		On exit  : 3F/0
  6099 ;;		Unchanged: 3F/0
  6100 ;; Data sizes:     COMRAM   BANK0   BANK1   BANK2   BANK3   BANK4   BANK5   BANK6   BANK7   BANK8   BANK9  BANK10  BANK1
      +1  BANK12  BANK13  BANK14  BANK15  BANK16  BANK17  BANK18  BANK19  BANK20  BANK21  BANK22  BANK23  BANK24  BANK25  BANK2
      +6  BANK27  BANK28  BANK29  BANK30  BANK31
  6101 ;;      Params:         0       0       0       0       0       0       0       0       0       0       0       0       
      +0       0       0       0       0       0       0       0       0       0       0       0       0       0       0       
      +0       0       0       0       0       0
  6102 ;;      Locals:         0       0       0       0       0       0       0       0       0       0       0       0       
      +0       0       0       0       0       0       0       0       0       0       0       0       0       0       0       
      +0       0       0       0       0       0
  6103 ;;      Temps:          0       0       0       0       0       0       0       0       0       0       0       0       
      +0       0       0       0       0       0       0       0       0       0       0       0       0       0       0       
      +0       0       0       0       0       0
  6104 ;;      Totals:         0       0       0       0       0       0       0       0       0       0       0       0       
      +0       0       0       0       0       0       0       0       0       0       0       0       0       0       0       
      +0       0       0       0       0       0
  6105 ;;Total ram usage:        0 bytes
  6106 ;; Hardware stack levels used:    1
  6107 ;; This function calls:
  6108 ;;		Nothing
  6109 ;; This function is called by:
  6110 ;;		_UART2_Initialize
  6111 ;;		_UART2_Receive_ISR
  6112 ;; This function uses a non-reentrant model
  6113 ;;
  6114                           
  6115                           	psect	text53
  6116  003294                     __ptext53:
  6117                           	callstack 0
  6118  003294                     _UART2_DefaultOverrunErrorHandler:
  6119                           	callstack 20
  6120                           
  6121                           ; BSR set to: 0
  6122                           
  6123                           ;incstack = 0
  6124  003294  0012               	return		;funcret
  6125  003296                     __end_of_UART2_DefaultOverrunErrorHandler:
  6126                           	callstack 0
  6127                           
  6128 ;; *************** function _UART2_DefaultFramingErrorHandler *****************
  6129 ;; Defined at:
  6130 ;;		line 290 in file "mcc_generated_files/uart2.c"
  6131 ;; Parameters:    Size  Location     Type
  6132 ;;		None
  6133 ;; Auto vars:     Size  Location     Type
  6134 ;;		None
  6135 ;; Return value:  Size  Location     Type
  6136 ;;                  1    wreg      void 
  6137 ;; Registers used:
  6138 ;;		None
  6139 ;; Tracked objects:
  6140 ;;		On entry : 3F/0
  6141 ;;		On exit  : 3F/0
  6142 ;;		Unchanged: 3F/0
  6143 ;; Data sizes:     COMRAM   BANK0   BANK1   BANK2   BANK3   BANK4   BANK5   BANK6   BANK7   BANK8   BANK9  BANK10  BANK1
      +1  BANK12  BANK13  BANK14  BANK15  BANK16  BANK17  BANK18  BANK19  BANK20  BANK21  BANK22  BANK23  BANK24  BANK25  BANK2
      +6  BANK27  BANK28  BANK29  BANK30  BANK31
  6144 ;;      Params:         0       0       0       0       0       0       0       0       0       0       0       0       
      +0       0       0       0       0       0       0       0       0       0       0       0       0       0       0       
      +0       0       0       0       0       0
  6145 ;;      Locals:         0       0       0       0       0       0       0       0       0       0       0       0       
      +0       0       0       0       0       0       0       0       0       0       0       0       0       0       0       
      +0       0       0       0       0       0
  6146 ;;      Temps:          0       0       0       0       0       0       0       0       0       0       0       0       
      +0       0       0       0       0       0       0       0       0       0       0       0       0       0       0       
      +0       0       0       0       0       0
  6147 ;;      Totals:         0       0       0       0       0       0       0       0       0       0       0       0       
      +0       0       0       0       0       0       0       0       0       0       0       0       0       0       0       
      +0       0       0       0       0       0
  6148 ;;Total ram usage:        0 bytes
  6149 ;; Hardware stack levels used:    1
  6150 ;; This function calls:
  6151 ;;		Nothing
  6152 ;; This function is called by:
  6153 ;;		_UART2_Initialize
  6154 ;;		_UART2_Receive_ISR
  6155 ;; This function uses a non-reentrant model
  6156 ;;
  6157                           
  6158                           	psect	text54
  6159  003296                     __ptext54:
  6160                           	callstack 0
  6161  003296                     _UART2_DefaultFramingErrorHandler:
  6162                           	callstack 20
  6163                           
  6164                           ; BSR set to: 0
  6165                           
  6166                           ; BSR set to: 0
  6167                           ;incstack = 0
  6168  003296  0012               	return		;funcret
  6169  003298                     __end_of_UART2_DefaultFramingErrorHandler:
  6170                           	callstack 0
  6171                           
  6172 ;; *************** function _UART2_DefaultErrorHandler *****************
  6173 ;; Defined at:
  6174 ;;		line 294 in file "mcc_generated_files/uart2.c"
  6175 ;; Parameters:    Size  Location     Type
  6176 ;;		None
  6177 ;; Auto vars:     Size  Location     Type
  6178 ;;		None
  6179 ;; Return value:  Size  Location     Type
  6180 ;;                  1    wreg      void 
  6181 ;; Registers used:
  6182 ;;		wreg, fsr2l, fsr2h, status,2, status,0, cstack
  6183 ;; Tracked objects:
  6184 ;;		On entry : 3F/0
  6185 ;;		On exit  : 3F/0
  6186 ;;		Unchanged: 0/0
  6187 ;; Data sizes:     COMRAM   BANK0   BANK1   BANK2   BANK3   BANK4   BANK5   BANK6   BANK7   BANK8   BANK9  BANK10  BANK1
      +1  BANK12  BANK13  BANK14  BANK15  BANK16  BANK17  BANK18  BANK19  BANK20  BANK21  BANK22  BANK23  BANK24  BANK25  BANK2
      +6  BANK27  BANK28  BANK29  BANK30  BANK31
  6188 ;;      Params:         0       0       0       0       0       0       0       0       0       0       0       0       
      +0       0       0       0       0       0       0       0       0       0       0       0       0       0       0       
      +0       0       0       0       0       0
  6189 ;;      Locals:         0       0       0       0       0       0       0       0       0       0       0       0       
      +0       0       0       0       0       0       0       0       0       0       0       0       0       0       0       
      +0       0       0       0       0       0
  6190 ;;      Temps:          0       0       0       0       0       0       0       0       0       0       0       0       
      +0       0       0       0       0       0       0       0       0       0       0       0       0       0       0       
      +0       0       0       0       0       0
  6191 ;;      Totals:         0       0       0       0       0       0       0       0       0       0       0       0       
      +0       0       0       0       0       0       0       0       0       0       0       0       0       0       0       
      +0       0       0       0       0       0
  6192 ;;Total ram usage:        0 bytes
  6193 ;; Hardware stack levels used:    1
  6194 ;; Hardware stack levels required when called:    1
  6195 ;; This function calls:
  6196 ;;		_UART2_RxDataHandler
  6197 ;; This function is called by:
  6198 ;;		_UART2_Initialize
  6199 ;;		_UART2_Receive_ISR
  6200 ;; This function uses a non-reentrant model
  6201 ;;
  6202                           
  6203                           	psect	text55
  6204  003278                     __ptext55:
  6205                           	callstack 0
  6206  003278                     _UART2_DefaultErrorHandler:
  6207                           	callstack 19
  6208                           
  6209                           ; BSR set to: 0
  6210                           ;mcc_generated_files/uart2.c: 295:     UART2_RxDataHandler();
  6211                           
  6212                           ; BSR set to: 0
  6213                           ;incstack = 0
  6214  003278  EC48  F018         	call	_UART2_RxDataHandler	;wreg free
  6215                           
  6216                           ; BSR set to: 0
  6217  00327C  0012               	return		;funcret
  6218  00327E                     __end_of_UART2_DefaultErrorHandler:
  6219                           	callstack 0
  6220                           
  6221 ;; *************** function _UART2_RxDataHandler *****************
  6222 ;; Defined at:
  6223 ;;		line 280 in file "mcc_generated_files/uart2.c"
  6224 ;; Parameters:    Size  Location     Type
  6225 ;;		None
  6226 ;; Auto vars:     Size  Location     Type
  6227 ;;		None
  6228 ;; Return value:  Size  Location     Type
  6229 ;;                  1    wreg      void 
  6230 ;; Registers used:
  6231 ;;		wreg, fsr2l, fsr2h, status,2, status,0
  6232 ;; Tracked objects:
  6233 ;;		On entry : 0/3D
  6234 ;;		On exit  : 3F/0
  6235 ;;		Unchanged: 0/0
  6236 ;; Data sizes:     COMRAM   BANK0   BANK1   BANK2   BANK3   BANK4   BANK5   BANK6   BANK7   BANK8   BANK9  BANK10  BANK1
      +1  BANK12  BANK13  BANK14  BANK15  BANK16  BANK17  BANK18  BANK19  BANK20  BANK21  BANK22  BANK23  BANK24  BANK25  BANK2
      +6  BANK27  BANK28  BANK29  BANK30  BANK31
  6237 ;;      Params:         0       0       0       0       0       0       0       0       0       0       0       0       
      +0       0       0       0       0       0       0       0       0       0       0       0       0       0       0       
      +0       0       0       0       0       0
  6238 ;;      Locals:         0       0       0       0       0       0       0       0       0       0       0       0       
      +0       0       0       0       0       0       0       0       0       0       0       0       0       0       0       
      +0       0       0       0       0       0
  6239 ;;      Temps:          0       0       0       0       0       0       0       0       0       0       0       0       
      +0       0       0       0       0       0       0       0       0       0       0       0       0       0       0       
      +0       0       0       0       0       0
  6240 ;;      Totals:         0       0       0       0       0       0       0       0       0       0       0       0       
      +0       0       0       0       0       0       0       0       0       0       0       0       0       0       0       
      +0       0       0       0       0       0
  6241 ;;Total ram usage:        0 bytes
  6242 ;; Hardware stack levels used:    1
  6243 ;; This function calls:
  6244 ;;		Nothing
  6245 ;; This function is called by:
  6246 ;;		_UART2_Receive_ISR
  6247 ;;		_UART2_DefaultErrorHandler
  6248 ;; This function uses a non-reentrant model
  6249 ;;
  6250                           
  6251                           	psect	text56
  6252  003090                     __ptext56:
  6253                           	callstack 0
  6254  003090                     _UART2_RxDataHandler:
  6255                           	callstack 20
  6256                           
  6257                           ;mcc_generated_files/uart2.c: 282:     uart2RxBuffer[uart2RxHead++] = U2RXB;
  6258                           
  6259                           ; BSR set to: 0
  6260                           ;incstack = 0
  6261  003090  0E80               	movlw	low _uart2RxBuffer
  6262  003092  2456               	addwf	_uart2RxHead^0,w,c	;volatile
  6263  003094  6ED9               	movwf	fsr2l,c
  6264  003096  6ADA               	clrf	fsr2h,c
  6265  003098  0E02               	movlw	high _uart2RxBuffer
  6266  00309A  22DA               	addwfc	fsr2h,f,c
  6267  00309C  006F F743 FFDF     	movff	15824,indf2	;volatile
  6268  0030A2  2A56               	incf	_uart2RxHead^0,f,c	;volatile
  6269                           
  6270                           ;mcc_generated_files/uart2.c: 283:     if(sizeof(uart2RxBuffer) <= uart2RxHead)
  6271  0030A4  0E3F               	movlw	63
  6272  0030A6  6456               	cpfsgt	_uart2RxHead^0,c
  6273  0030A8  D002               	goto	i2l2568
  6274                           
  6275                           ;mcc_generated_files/uart2.c: 284:     {;mcc_generated_files/uart2.c: 285:         uart2
      +                          RxHead = 0;
  6276  0030AA  0E00               	movlw	0
  6277  0030AC  6E56               	movwf	_uart2RxHead^0,c	;volatile
  6278  0030AE                     i2l2568:
  6279                           
  6280                           ;mcc_generated_files/uart2.c: 287:     uart2RxCount++;
  6281  0030AE  0100               	movlb	0	; () banked
  6282  0030B0  2B96               	incf	_uart2RxCount& (0+255),f,b	;volatile
  6283                           
  6284                           ; BSR set to: 0
  6285  0030B2  0012               	return		;funcret
  6286  0030B4                     __end_of_UART2_RxDataHandler:
  6287                           	callstack 0
  6288                           
  6289 ;; *************** function _UART1_tx_vect_isr *****************
  6290 ;; Defined at:
  6291 ;;		line 227 in file "mcc_generated_files/uart1.c"
  6292 ;; Parameters:    Size  Location     Type
  6293 ;;		None
  6294 ;; Auto vars:     Size  Location     Type
  6295 ;;		None
  6296 ;; Return value:  Size  Location     Type
  6297 ;;                  1    wreg      void 
  6298 ;; Registers used:
  6299 ;;		wreg, fsr2l, fsr2h, status,2, status,0, pclath, tosl, cstack
  6300 ;; Tracked objects:
  6301 ;;		On entry : 0/0
  6302 ;;		On exit  : 0/0
  6303 ;;		Unchanged: 0/0
  6304 ;; Data sizes:     COMRAM   BANK0   BANK1   BANK2   BANK3   BANK4   BANK5   BANK6   BANK7   BANK8   BANK9  BANK10  BANK1
      +1  BANK12  BANK13  BANK14  BANK15  BANK16  BANK17  BANK18  BANK19  BANK20  BANK21  BANK22  BANK23  BANK24  BANK25  BANK2
      +6  BANK27  BANK28  BANK29  BANK30  BANK31
  6305 ;;      Params:         0       0       0       0       0       0       0       0       0       0       0       0       
      +0       0       0       0       0       0       0       0       0       0       0       0       0       0       0       
      +0       0       0       0       0       0
  6306 ;;      Locals:         0       0       0       0       0       0       0       0       0       0       0       0       
      +0       0       0       0       0       0       0       0       0       0       0       0       0       0       0       
      +0       0       0       0       0       0
  6307 ;;      Temps:          0       0       0       0       0       0       0       0       0       0       0       0       
      +0       0       0       0       0       0       0       0       0       0       0       0       0       0       0       
      +0       0       0       0       0       0
  6308 ;;      Totals:         0       0       0       0       0       0       0       0       0       0       0       0       
      +0       0       0       0       0       0       0       0       0       0       0       0       0       0       0       
      +0       0       0       0       0       0
  6309 ;;Total ram usage:        0 bytes
  6310 ;; Hardware stack levels used:    1
  6311 ;; Hardware stack levels required when called:    1
  6312 ;; This function calls:
  6313 ;;		Absolute function
  6314 ;;		_UART1_Transmit_ISR
  6315 ;; This function is called by:
  6316 ;;		Interrupt level 2
  6317 ;; This function uses a non-reentrant model
  6318 ;;
  6319                           
  6320                           	psect	text57
  6321  0030B4                     __ptext57:
  6322                           	callstack 0
  6323  0030B4                     _UART1_tx_vect_isr:
  6324                           	callstack 21
  6325                           
  6326                           ;mcc_generated_files/uart1.c: 229:     if(UART1_TxInterruptHandler)
  6327                           
  6328                           ; BSR set to: 0
  6329                           ;incstack = 0
  6330  0030B4  0100               	movlb	0	; () banked
  6331  0030B6  5178               	movf	_UART1_TxInterruptHandler& (0+255),w,b
  6332  0030B8  1179               	iorwf	(_UART1_TxInterruptHandler+1)& (0+255),w,b
  6333  0030BA  117A               	iorwf	(_UART1_TxInterruptHandler+2)& (0+255),w,b
  6334  0030BC  B4D8               	btfsc	status,2,c
  6335  0030BE  0011               	retfie		f
  6336                           
  6337                           ; BSR set to: 0
  6338                           ;mcc_generated_files/uart1.c: 230:     {;mcc_generated_files/uart1.c: 231:         UART1
      +                          _TxInterruptHandler();
  6339  0030C0  D801               	call	i2u161_48
  6340  0030C2  0011               	retfie		f
  6341  0030C4                     i2u161_48:
  6342  0030C4  0005               	push	
  6343  0030C6  6EFA               	movwf	pclath,c
  6344  0030C8  5178               	movf	_UART1_TxInterruptHandler& (0+255),w,b
  6345  0030CA  6EFD               	movwf	tosl,c
  6346  0030CC  5179               	movf	(_UART1_TxInterruptHandler+1)& (0+255),w,b
  6347  0030CE  6EFE               	movwf	tosh,c
  6348  0030D0  517A               	movf	(_UART1_TxInterruptHandler+2)& (0+255),w,b
  6349  0030D2  6EFF               	movwf	tosu,c
  6350  0030D4  50FA               	movf	pclath,w,c
  6351  0030D6  0012               	return		;indir
  6352  0030D8                     __end_of_UART1_tx_vect_isr:
  6353                           	callstack 0
  6354                           
  6355 ;; *************** function _UART1_Transmit_ISR *****************
  6356 ;; Defined at:
  6357 ;;		line 245 in file "mcc_generated_files/uart1.c"
  6358 ;; Parameters:    Size  Location     Type
  6359 ;;		None
  6360 ;; Auto vars:     Size  Location     Type
  6361 ;;		None
  6362 ;; Return value:  Size  Location     Type
  6363 ;;                  1    wreg      void 
  6364 ;; Registers used:
  6365 ;;		wreg, fsr2l, fsr2h, status,2, status,0
  6366 ;; Tracked objects:
  6367 ;;		On entry : 3F/0
  6368 ;;		On exit  : 6/0
  6369 ;;		Unchanged: 0/0
  6370 ;; Data sizes:     COMRAM   BANK0   BANK1   BANK2   BANK3   BANK4   BANK5   BANK6   BANK7   BANK8   BANK9  BANK10  BANK1
      +1  BANK12  BANK13  BANK14  BANK15  BANK16  BANK17  BANK18  BANK19  BANK20  BANK21  BANK22  BANK23  BANK24  BANK25  BANK2
      +6  BANK27  BANK28  BANK29  BANK30  BANK31
  6371 ;;      Params:         0       0       0       0       0       0       0       0       0       0       0       0       
      +0       0       0       0       0       0       0       0       0       0       0       0       0       0       0       
      +0       0       0       0       0       0
  6372 ;;      Locals:         0       0       0       0       0       0       0       0       0       0       0       0       
      +0       0       0       0       0       0       0       0       0       0       0       0       0       0       0       
      +0       0       0       0       0       0
  6373 ;;      Temps:          0       0       0       0       0       0       0       0       0       0       0       0       
      +0       0       0       0       0       0       0       0       0       0       0       0       0       0       0       
      +0       0       0       0       0       0
  6374 ;;      Totals:         0       0       0       0       0       0       0       0       0       0       0       0       
      +0       0       0       0       0       0       0       0       0       0       0       0       0       0       0       
      +0       0       0       0       0       0
  6375 ;;Total ram usage:        0 bytes
  6376 ;; Hardware stack levels used:    1
  6377 ;; This function calls:
  6378 ;;		Nothing
  6379 ;; This function is called by:
  6380 ;;		_UART1_Initialize
  6381 ;;		_UART1_tx_vect_isr
  6382 ;; This function uses a non-reentrant model
  6383 ;;
  6384                           
  6385                           	psect	text58
  6386  002F4C                     __ptext58:
  6387                           	callstack 0
  6388  002F4C                     _UART1_Transmit_ISR:
  6389                           	callstack 21
  6390                           
  6391                           ; BSR set to: 0
  6392                           ;mcc_generated_files/uart1.c: 248:     if(sizeof(uart1TxBuffer) > uart1TxBufferRemaining
      +                          )
  6393                           
  6394                           ;incstack = 0
  6395  002F4C  0E40               	movlw	64
  6396  002F4E  6193               	cpfslt	_uart1TxBufferRemaining& (0+255),b
  6397  002F50  D012               	goto	i2l790
  6398                           
  6399                           ; BSR set to: 0
  6400                           ;mcc_generated_files/uart1.c: 249:     {;mcc_generated_files/uart1.c: 250:         U1TXB
      +                           = uart1TxBuffer[uart1TxTail++];
  6401  002F52  0E40               	movlw	low _uart1TxBuffer
  6402  002F54  2455               	addwf	_uart1TxTail^0,w,c	;volatile
  6403  002F56  6ED9               	movwf	fsr2l,c
  6404  002F58  6ADA               	clrf	fsr2h,c
  6405  002F5A  0E02               	movlw	high _uart1TxBuffer
  6406  002F5C  22DA               	addwfc	fsr2h,f,c
  6407  002F5E  50DF               	movf	indf2,w,c
  6408  002F60  013D               	movlb	61	; () banked
  6409  002F62  6FEA               	movwf	234,b	;volatile
  6410                           
  6411                           ; BSR set to: 61
  6412  002F64  2A55               	incf	_uart1TxTail^0,f,c	;volatile
  6413                           
  6414                           ; BSR set to: 61
  6415                           ;mcc_generated_files/uart1.c: 251:        if(sizeof(uart1TxBuffer) <= uart1TxTail)
  6416  002F66  0E3F               	movlw	63
  6417  002F68  6455               	cpfsgt	_uart1TxTail^0,c
  6418  002F6A  D002               	goto	i2l2902
  6419                           
  6420                           ; BSR set to: 61
  6421                           ;mcc_generated_files/uart1.c: 252:         {;mcc_generated_files/uart1.c: 253:          
      +                             uart1TxTail = 0;
  6422  002F6C  0E00               	movlw	0
  6423  002F6E  6E55               	movwf	_uart1TxTail^0,c	;volatile
  6424  002F70                     i2l2902:
  6425                           
  6426                           ; BSR set to: 61
  6427                           ;mcc_generated_files/uart1.c: 255:         uart1TxBufferRemaining++;
  6428  002F70  0100               	movlb	0	; () banked
  6429  002F72  2B93               	incf	_uart1TxBufferRemaining& (0+255),f,b	;volatile
  6430                           
  6431                           ;mcc_generated_files/uart1.c: 256:     }
  6432  002F74  0012               	return	
  6433  002F76                     i2l790:
  6434                           
  6435                           ; BSR set to: 0
  6436                           ;mcc_generated_files/uart1.c: 258:     {;mcc_generated_files/uart1.c: 259:         PIE3b
      +                          its.U1TXIE = 0;
  6437  002F76  0139               	movlb	57	; () banked
  6438  002F78  9993               	bcf	147,4,b	;volatile
  6439  002F7A  0012               	return		;funcret
  6440  002F7C                     __end_of_UART1_Transmit_ISR:
  6441                           	callstack 0
  6442                           
  6443 ;; *************** function _UART1_rx_vect_isr *****************
  6444 ;; Defined at:
  6445 ;;		line 235 in file "mcc_generated_files/uart1.c"
  6446 ;; Parameters:    Size  Location     Type
  6447 ;;		None
  6448 ;; Auto vars:     Size  Location     Type
  6449 ;;		None
  6450 ;; Return value:  Size  Location     Type
  6451 ;;                  1    wreg      void 
  6452 ;; Registers used:
  6453 ;;		wreg, fsr2l, fsr2h, status,2, status,0, pclath, tosl, cstack
  6454 ;; Tracked objects:
  6455 ;;		On entry : 0/0
  6456 ;;		On exit  : 0/0
  6457 ;;		Unchanged: 0/0
  6458 ;; Data sizes:     COMRAM   BANK0   BANK1   BANK2   BANK3   BANK4   BANK5   BANK6   BANK7   BANK8   BANK9  BANK10  BANK1
      +1  BANK12  BANK13  BANK14  BANK15  BANK16  BANK17  BANK18  BANK19  BANK20  BANK21  BANK22  BANK23  BANK24  BANK25  BANK2
      +6  BANK27  BANK28  BANK29  BANK30  BANK31
  6459 ;;      Params:         0       0       0       0       0       0       0       0       0       0       0       0       
      +0       0       0       0       0       0       0       0       0       0       0       0       0       0       0       
      +0       0       0       0       0       0
  6460 ;;      Locals:         0       0       0       0       0       0       0       0       0       0       0       0       
      +0       0       0       0       0       0       0       0       0       0       0       0       0       0       0       
      +0       0       0       0       0       0
  6461 ;;      Temps:          0       0       0       0       0       0       0       0       0       0       0       0       
      +0       0       0       0       0       0       0       0       0       0       0       0       0       0       0       
      +0       0       0       0       0       0
  6462 ;;      Totals:         0       0       0       0       0       0       0       0       0       0       0       0       
      +0       0       0       0       0       0       0       0       0       0       0       0       0       0       0       
      +0       0       0       0       0       0
  6463 ;;Total ram usage:        0 bytes
  6464 ;; Hardware stack levels used:    1
  6465 ;; Hardware stack levels required when called:    3
  6466 ;; This function calls:
  6467 ;;		Absolute function
  6468 ;;		_UART1_Receive_ISR
  6469 ;; This function is called by:
  6470 ;;		Interrupt level 2
  6471 ;; This function uses a non-reentrant model
  6472 ;;
  6473                           
  6474                           	psect	text59
  6475  0030D8                     __ptext59:
  6476                           	callstack 0
  6477  0030D8                     _UART1_rx_vect_isr:
  6478                           	callstack 19
  6479                           
  6480                           ;mcc_generated_files/uart1.c: 237:     if(UART1_RxInterruptHandler)
  6481                           
  6482                           ;incstack = 0
  6483  0030D8  0100               	movlb	0	; () banked
  6484  0030DA  517B               	movf	_UART1_RxInterruptHandler& (0+255),w,b
  6485  0030DC  117C               	iorwf	(_UART1_RxInterruptHandler+1)& (0+255),w,b
  6486  0030DE  117D               	iorwf	(_UART1_RxInterruptHandler+2)& (0+255),w,b
  6487  0030E0  B4D8               	btfsc	status,2,c
  6488  0030E2  0011               	retfie		f
  6489                           
  6490                           ; BSR set to: 0
  6491                           ;mcc_generated_files/uart1.c: 238:     {;mcc_generated_files/uart1.c: 239:         UART1
      +                          _RxInterruptHandler();
  6492  0030E4  D801               	call	i2u163_48
  6493  0030E6  0011               	retfie		f
  6494  0030E8                     i2u163_48:
  6495  0030E8  0005               	push	
  6496  0030EA  6EFA               	movwf	pclath,c
  6497  0030EC  517B               	movf	_UART1_RxInterruptHandler& (0+255),w,b
  6498  0030EE  6EFD               	movwf	tosl,c
  6499  0030F0  517C               	movf	(_UART1_RxInterruptHandler+1)& (0+255),w,b
  6500  0030F2  6EFE               	movwf	tosh,c
  6501  0030F4  517D               	movf	(_UART1_RxInterruptHandler+2)& (0+255),w,b
  6502  0030F6  6EFF               	movwf	tosu,c
  6503  0030F8  50FA               	movf	pclath,w,c
  6504  0030FA  0012               	return		;indir
  6505  0030FC                     __end_of_UART1_rx_vect_isr:
  6506                           	callstack 0
  6507                           
  6508 ;; *************** function _UART1_Receive_ISR *****************
  6509 ;; Defined at:
  6510 ;;		line 265 in file "mcc_generated_files/uart1.c"
  6511 ;; Parameters:    Size  Location     Type
  6512 ;;		None
  6513 ;; Auto vars:     Size  Location     Type
  6514 ;;		None
  6515 ;; Return value:  Size  Location     Type
  6516 ;;                  1    wreg      void 
  6517 ;; Registers used:
  6518 ;;		wreg, fsr2l, fsr2h, status,2, status,0, pclath, tosl, cstack
  6519 ;; Tracked objects:
  6520 ;;		On entry : 3F/0
  6521 ;;		On exit  : 0/0
  6522 ;;		Unchanged: 0/0
  6523 ;; Data sizes:     COMRAM   BANK0   BANK1   BANK2   BANK3   BANK4   BANK5   BANK6   BANK7   BANK8   BANK9  BANK10  BANK1
      +1  BANK12  BANK13  BANK14  BANK15  BANK16  BANK17  BANK18  BANK19  BANK20  BANK21  BANK22  BANK23  BANK24  BANK25  BANK2
      +6  BANK27  BANK28  BANK29  BANK30  BANK31
  6524 ;;      Params:         0       0       0       0       0       0       0       0       0       0       0       0       
      +0       0       0       0       0       0       0       0       0       0       0       0       0       0       0       
      +0       0       0       0       0       0
  6525 ;;      Locals:         0       0       0       0       0       0       0       0       0       0       0       0       
      +0       0       0       0       0       0       0       0       0       0       0       0       0       0       0       
      +0       0       0       0       0       0
  6526 ;;      Temps:          0       0       0       0       0       0       0       0       0       0       0       0       
      +0       0       0       0       0       0       0       0       0       0       0       0       0       0       0       
      +0       0       0       0       0       0
  6527 ;;      Totals:         0       0       0       0       0       0       0       0       0       0       0       0       
      +0       0       0       0       0       0       0       0       0       0       0       0       0       0       0       
      +0       0       0       0       0       0
  6528 ;;Total ram usage:        0 bytes
  6529 ;; Hardware stack levels used:    1
  6530 ;; Hardware stack levels required when called:    2
  6531 ;; This function calls:
  6532 ;;		Absolute function
  6533 ;;		_UART1_DefaultErrorHandler
  6534 ;;		_UART1_DefaultFramingErrorHandler
  6535 ;;		_UART1_DefaultOverrunErrorHandler
  6536 ;;		_UART1_RxDataHandler
  6537 ;; This function is called by:
  6538 ;;		_UART1_Initialize
  6539 ;;		_UART1_rx_vect_isr
  6540 ;; This function uses a non-reentrant model
  6541 ;;
  6542                           
  6543                           	psect	text60
  6544  0029B0                     __ptext60:
  6545                           	callstack 0
  6546  0029B0                     _UART1_Receive_ISR:
  6547                           	callstack 19
  6548                           
  6549                           ; BSR set to: 0
  6550                           ;mcc_generated_files/uart1.c: 268:     uart1RxStatusBuffer[uart1RxHead].status = 0;
  6551                           
  6552                           ;incstack = 0
  6553  0029B0  0E00               	movlw	low _uart1RxStatusBuffer
  6554  0029B2  2454               	addwf	_uart1RxHead^0,w,c	;volatile
  6555  0029B4  6ED9               	movwf	fsr2l,c
  6556  0029B6  6ADA               	clrf	fsr2h,c
  6557  0029B8  0E01               	movlw	high _uart1RxStatusBuffer
  6558  0029BA  22DA               	addwfc	fsr2h,f,c
  6559  0029BC  0E00               	movlw	0
  6560  0029BE  6EDF               	movwf	indf2,c
  6561                           
  6562                           ; BSR set to: 0
  6563                           ;mcc_generated_files/uart1.c: 270:     if(U1ERRIRbits.FERIF){
  6564  0029C0  013D               	movlb	61	; () banked
  6565  0029C2  A7F9               	btfss	249,3,b	;volatile
  6566  0029C4  D015               	goto	i2u138_49
  6567                           
  6568                           ; BSR set to: 61
  6569                           ;mcc_generated_files/uart1.c: 271:         uart1RxStatusBuffer[uart1RxHead].ferr = 1;
  6570  0029C6  0E00               	movlw	low _uart1RxStatusBuffer
  6571  0029C8  2454               	addwf	_uart1RxHead^0,w,c	;volatile
  6572  0029CA  6ED9               	movwf	fsr2l,c
  6573  0029CC  6ADA               	clrf	fsr2h,c
  6574  0029CE  0E01               	movlw	high _uart1RxStatusBuffer
  6575  0029D0  22DA               	addwfc	fsr2h,f,c
  6576  0029D2  0101               	movlb	1	; () banked
  6577  0029D4  82DF               	bsf	indf2,1,c
  6578                           
  6579                           ; BSR set to: 1
  6580                           ;mcc_generated_files/uart1.c: 272:         UART1_FramingErrorHandler();
  6581  0029D6  D801               	call	i2u138_48
  6582  0029D8  D00B               	goto	i2u138_49
  6583  0029DA                     i2u138_48:
  6584  0029DA  0005               	push	
  6585  0029DC  6EFA               	movwf	pclath,c
  6586  0029DE  0100               	movlb	0	; () banked
  6587  0029E0  5166               	movf	_UART1_FramingErrorHandler& (0+255),w,b
  6588  0029E2  6EFD               	movwf	tosl,c
  6589  0029E4  5167               	movf	(_UART1_FramingErrorHandler+1)& (0+255),w,b
  6590  0029E6  6EFE               	movwf	tosh,c
  6591  0029E8  5168               	movf	(_UART1_FramingErrorHandler+2)& (0+255),w,b
  6592  0029EA  6EFF               	movwf	tosu,c
  6593  0029EC  50FA               	movf	pclath,w,c
  6594  0029EE  0012               	return		;indir
  6595  0029F0                     i2u138_49:
  6596                           
  6597                           ;mcc_generated_files/uart1.c: 275:     if(U1ERRIRbits.RXFOIF){
  6598  0029F0  013D               	movlb	61	; () banked
  6599  0029F2  A3F9               	btfss	249,1,b	;volatile
  6600  0029F4  D015               	goto	i2u140_49
  6601                           
  6602                           ; BSR set to: 61
  6603                           ;mcc_generated_files/uart1.c: 276:         uart1RxStatusBuffer[uart1RxHead].oerr = 1;
  6604  0029F6  0E00               	movlw	low _uart1RxStatusBuffer
  6605  0029F8  2454               	addwf	_uart1RxHead^0,w,c	;volatile
  6606  0029FA  6ED9               	movwf	fsr2l,c
  6607  0029FC  6ADA               	clrf	fsr2h,c
  6608  0029FE  0E01               	movlw	high _uart1RxStatusBuffer
  6609  002A00  22DA               	addwfc	fsr2h,f,c
  6610  002A02  0101               	movlb	1	; () banked
  6611  002A04  84DF               	bsf	indf2,2,c
  6612                           
  6613                           ; BSR set to: 1
  6614                           ;mcc_generated_files/uart1.c: 277:         UART1_OverrunErrorHandler();
  6615  002A06  D801               	call	i2u140_48
  6616  002A08  D00B               	goto	i2u140_49
  6617  002A0A                     i2u140_48:
  6618  002A0A  0005               	push	
  6619  002A0C  6EFA               	movwf	pclath,c
  6620  002A0E  0100               	movlb	0	; () banked
  6621  002A10  5163               	movf	_UART1_OverrunErrorHandler& (0+255),w,b
  6622  002A12  6EFD               	movwf	tosl,c
  6623  002A14  5164               	movf	(_UART1_OverrunErrorHandler+1)& (0+255),w,b
  6624  002A16  6EFE               	movwf	tosh,c
  6625  002A18  5165               	movf	(_UART1_OverrunErrorHandler+2)& (0+255),w,b
  6626  002A1A  6EFF               	movwf	tosu,c
  6627  002A1C  50FA               	movf	pclath,w,c
  6628  002A1E  0012               	return		;indir
  6629  002A20                     i2u140_49:
  6630                           
  6631                           ;mcc_generated_files/uart1.c: 280:     if(uart1RxStatusBuffer[uart1RxHead].status){
  6632  002A20  0E00               	movlw	low _uart1RxStatusBuffer
  6633  002A22  2454               	addwf	_uart1RxHead^0,w,c	;volatile
  6634  002A24  6ED9               	movwf	fsr2l,c
  6635  002A26  6ADA               	clrf	fsr2h,c
  6636  002A28  0E01               	movlw	high _uart1RxStatusBuffer
  6637  002A2A  22DA               	addwfc	fsr2h,f,c
  6638  002A2C  50DF               	movf	indf2,w,c
  6639  002A2E  B4D8               	btfsc	status,2,c
  6640  002A30  D00D               	goto	i2l2922
  6641                           
  6642                           ;mcc_generated_files/uart1.c: 281:         UART1_ErrorHandler();
  6643  002A32  D801               	call	i2u142_48
  6644  002A34  0012               	return	
  6645  002A36                     i2u142_48:
  6646  002A36  0005               	push	
  6647  002A38  6EFA               	movwf	pclath,c
  6648  002A3A  0100               	movlb	0	; () banked
  6649  002A3C  5160               	movf	_UART1_ErrorHandler& (0+255),w,b
  6650  002A3E  6EFD               	movwf	tosl,c
  6651  002A40  5161               	movf	(_UART1_ErrorHandler+1)& (0+255),w,b
  6652  002A42  6EFE               	movwf	tosh,c
  6653  002A44  5162               	movf	(_UART1_ErrorHandler+2)& (0+255),w,b
  6654  002A46  6EFF               	movwf	tosu,c
  6655  002A48  50FA               	movf	pclath,w,c
  6656  002A4A  0012               	return		;indir
  6657  002A4C                     i2l2922:
  6658                           
  6659                           ;mcc_generated_files/uart1.c: 283:         UART1_RxDataHandler();
  6660  002A4C  EC7E  F018         	call	_UART1_RxDataHandler	;wreg free
  6661  002A50  0012               	return		;funcret
  6662  002A52                     __end_of_UART1_Receive_ISR:
  6663                           	callstack 0
  6664                           
  6665 ;; *************** function _UART1_DefaultOverrunErrorHandler *****************
  6666 ;; Defined at:
  6667 ;;		line 301 in file "mcc_generated_files/uart1.c"
  6668 ;; Parameters:    Size  Location     Type
  6669 ;;		None
  6670 ;; Auto vars:     Size  Location     Type
  6671 ;;		None
  6672 ;; Return value:  Size  Location     Type
  6673 ;;                  1    wreg      void 
  6674 ;; Registers used:
  6675 ;;		None
  6676 ;; Tracked objects:
  6677 ;;		On entry : 3F/0
  6678 ;;		On exit  : 3F/0
  6679 ;;		Unchanged: 3F/0
  6680 ;; Data sizes:     COMRAM   BANK0   BANK1   BANK2   BANK3   BANK4   BANK5   BANK6   BANK7   BANK8   BANK9  BANK10  BANK1
      +1  BANK12  BANK13  BANK14  BANK15  BANK16  BANK17  BANK18  BANK19  BANK20  BANK21  BANK22  BANK23  BANK24  BANK25  BANK2
      +6  BANK27  BANK28  BANK29  BANK30  BANK31
  6681 ;;      Params:         0       0       0       0       0       0       0       0       0       0       0       0       
      +0       0       0       0       0       0       0       0       0       0       0       0       0       0       0       
      +0       0       0       0       0       0
  6682 ;;      Locals:         0       0       0       0       0       0       0       0       0       0       0       0       
      +0       0       0       0       0       0       0       0       0       0       0       0       0       0       0       
      +0       0       0       0       0       0
  6683 ;;      Temps:          0       0       0       0       0       0       0       0       0       0       0       0       
      +0       0       0       0       0       0       0       0       0       0       0       0       0       0       0       
      +0       0       0       0       0       0
  6684 ;;      Totals:         0       0       0       0       0       0       0       0       0       0       0       0       
      +0       0       0       0       0       0       0       0       0       0       0       0       0       0       0       
      +0       0       0       0       0       0
  6685 ;;Total ram usage:        0 bytes
  6686 ;; Hardware stack levels used:    1
  6687 ;; This function calls:
  6688 ;;		Nothing
  6689 ;; This function is called by:
  6690 ;;		_UART1_Initialize
  6691 ;;		_UART1_Receive_ISR
  6692 ;; This function uses a non-reentrant model
  6693 ;;
  6694                           
  6695                           	psect	text61
  6696  003298                     __ptext61:
  6697                           	callstack 0
  6698  003298                     _UART1_DefaultOverrunErrorHandler:
  6699                           	callstack 20
  6700                           
  6701                           ; BSR set to: 0
  6702                           
  6703                           ;incstack = 0
  6704  003298  0012               	return		;funcret
  6705  00329A                     __end_of_UART1_DefaultOverrunErrorHandler:
  6706                           	callstack 0
  6707                           
  6708 ;; *************** function _UART1_DefaultFramingErrorHandler *****************
  6709 ;; Defined at:
  6710 ;;		line 299 in file "mcc_generated_files/uart1.c"
  6711 ;; Parameters:    Size  Location     Type
  6712 ;;		None
  6713 ;; Auto vars:     Size  Location     Type
  6714 ;;		None
  6715 ;; Return value:  Size  Location     Type
  6716 ;;                  1    wreg      void 
  6717 ;; Registers used:
  6718 ;;		None
  6719 ;; Tracked objects:
  6720 ;;		On entry : 3F/0
  6721 ;;		On exit  : 3F/0
  6722 ;;		Unchanged: 3F/0
  6723 ;; Data sizes:     COMRAM   BANK0   BANK1   BANK2   BANK3   BANK4   BANK5   BANK6   BANK7   BANK8   BANK9  BANK10  BANK1
      +1  BANK12  BANK13  BANK14  BANK15  BANK16  BANK17  BANK18  BANK19  BANK20  BANK21  BANK22  BANK23  BANK24  BANK25  BANK2
      +6  BANK27  BANK28  BANK29  BANK30  BANK31
  6724 ;;      Params:         0       0       0       0       0       0       0       0       0       0       0       0       
      +0       0       0       0       0       0       0       0       0       0       0       0       0       0       0       
      +0       0       0       0       0       0
  6725 ;;      Locals:         0       0       0       0       0       0       0       0       0       0       0       0       
      +0       0       0       0       0       0       0       0       0       0       0       0       0       0       0       
      +0       0       0       0       0       0
  6726 ;;      Temps:          0       0       0       0       0       0       0       0       0       0       0       0       
      +0       0       0       0       0       0       0       0       0       0       0       0       0       0       0       
      +0       0       0       0       0       0
  6727 ;;      Totals:         0       0       0       0       0       0       0       0       0       0       0       0       
      +0       0       0       0       0       0       0       0       0       0       0       0       0       0       0       
      +0       0       0       0       0       0
  6728 ;;Total ram usage:        0 bytes
  6729 ;; Hardware stack levels used:    1
  6730 ;; This function calls:
  6731 ;;		Nothing
  6732 ;; This function is called by:
  6733 ;;		_UART1_Initialize
  6734 ;;		_UART1_Receive_ISR
  6735 ;; This function uses a non-reentrant model
  6736 ;;
  6737                           
  6738                           	psect	text62
  6739  00329A                     __ptext62:
  6740                           	callstack 0
  6741  00329A                     _UART1_DefaultFramingErrorHandler:
  6742                           	callstack 20
  6743                           
  6744                           ; BSR set to: 0
  6745                           
  6746                           ; BSR set to: 0
  6747                           ;incstack = 0
  6748  00329A  0012               	return		;funcret
  6749  00329C                     __end_of_UART1_DefaultFramingErrorHandler:
  6750                           	callstack 0
  6751                           
  6752 ;; *************** function _UART1_DefaultErrorHandler *****************
  6753 ;; Defined at:
  6754 ;;		line 303 in file "mcc_generated_files/uart1.c"
  6755 ;; Parameters:    Size  Location     Type
  6756 ;;		None
  6757 ;; Auto vars:     Size  Location     Type
  6758 ;;		None
  6759 ;; Return value:  Size  Location     Type
  6760 ;;                  1    wreg      void 
  6761 ;; Registers used:
  6762 ;;		wreg, fsr2l, fsr2h, status,2, status,0, cstack
  6763 ;; Tracked objects:
  6764 ;;		On entry : 3F/0
  6765 ;;		On exit  : 3F/0
  6766 ;;		Unchanged: 0/0
  6767 ;; Data sizes:     COMRAM   BANK0   BANK1   BANK2   BANK3   BANK4   BANK5   BANK6   BANK7   BANK8   BANK9  BANK10  BANK1
      +1  BANK12  BANK13  BANK14  BANK15  BANK16  BANK17  BANK18  BANK19  BANK20  BANK21  BANK22  BANK23  BANK24  BANK25  BANK2
      +6  BANK27  BANK28  BANK29  BANK30  BANK31
  6768 ;;      Params:         0       0       0       0       0       0       0       0       0       0       0       0       
      +0       0       0       0       0       0       0       0       0       0       0       0       0       0       0       
      +0       0       0       0       0       0
  6769 ;;      Locals:         0       0       0       0       0       0       0       0       0       0       0       0       
      +0       0       0       0       0       0       0       0       0       0       0       0       0       0       0       
      +0       0       0       0       0       0
  6770 ;;      Temps:          0       0       0       0       0       0       0       0       0       0       0       0       
      +0       0       0       0       0       0       0       0       0       0       0       0       0       0       0       
      +0       0       0       0       0       0
  6771 ;;      Totals:         0       0       0       0       0       0       0       0       0       0       0       0       
      +0       0       0       0       0       0       0       0       0       0       0       0       0       0       0       
      +0       0       0       0       0       0
  6772 ;;Total ram usage:        0 bytes
  6773 ;; Hardware stack levels used:    1
  6774 ;; Hardware stack levels required when called:    1
  6775 ;; This function calls:
  6776 ;;		_UART1_RxDataHandler
  6777 ;; This function is called by:
  6778 ;;		_UART1_Initialize
  6779 ;;		_UART1_Receive_ISR
  6780 ;; This function uses a non-reentrant model
  6781 ;;
  6782                           
  6783                           	psect	text63
  6784  00327E                     __ptext63:
  6785                           	callstack 0
  6786  00327E                     _UART1_DefaultErrorHandler:
  6787                           	callstack 19
  6788                           
  6789                           ; BSR set to: 0
  6790                           ;mcc_generated_files/uart1.c: 304:     UART1_RxDataHandler();
  6791                           
  6792                           ; BSR set to: 0
  6793                           ;incstack = 0
  6794  00327E  EC7E  F018         	call	_UART1_RxDataHandler	;wreg free
  6795                           
  6796                           ; BSR set to: 0
  6797  003282  0012               	return		;funcret
  6798  003284                     __end_of_UART1_DefaultErrorHandler:
  6799                           	callstack 0
  6800                           
  6801 ;; *************** function _UART1_RxDataHandler *****************
  6802 ;; Defined at:
  6803 ;;		line 289 in file "mcc_generated_files/uart1.c"
  6804 ;; Parameters:    Size  Location     Type
  6805 ;;		None
  6806 ;; Auto vars:     Size  Location     Type
  6807 ;;		None
  6808 ;; Return value:  Size  Location     Type
  6809 ;;                  1    wreg      void 
  6810 ;; Registers used:
  6811 ;;		wreg, fsr2l, fsr2h, status,2, status,0
  6812 ;; Tracked objects:
  6813 ;;		On entry : 0/3D
  6814 ;;		On exit  : 3F/0
  6815 ;;		Unchanged: 0/0
  6816 ;; Data sizes:     COMRAM   BANK0   BANK1   BANK2   BANK3   BANK4   BANK5   BANK6   BANK7   BANK8   BANK9  BANK10  BANK1
      +1  BANK12  BANK13  BANK14  BANK15  BANK16  BANK17  BANK18  BANK19  BANK20  BANK21  BANK22  BANK23  BANK24  BANK25  BANK2
      +6  BANK27  BANK28  BANK29  BANK30  BANK31
  6817 ;;      Params:         0       0       0       0       0       0       0       0       0       0       0       0       
      +0       0       0       0       0       0       0       0       0       0       0       0       0       0       0       
      +0       0       0       0       0       0
  6818 ;;      Locals:         0       0       0       0       0       0       0       0       0       0       0       0       
      +0       0       0       0       0       0       0       0       0       0       0       0       0       0       0       
      +0       0       0       0       0       0
  6819 ;;      Temps:          0       0       0       0       0       0       0       0       0       0       0       0       
      +0       0       0       0       0       0       0       0       0       0       0       0       0       0       0       
      +0       0       0       0       0       0
  6820 ;;      Totals:         0       0       0       0       0       0       0       0       0       0       0       0       
      +0       0       0       0       0       0       0       0       0       0       0       0       0       0       0       
      +0       0       0       0       0       0
  6821 ;;Total ram usage:        0 bytes
  6822 ;; Hardware stack levels used:    1
  6823 ;; This function calls:
  6824 ;;		Nothing
  6825 ;; This function is called by:
  6826 ;;		_UART1_Receive_ISR
  6827 ;;		_UART1_DefaultErrorHandler
  6828 ;; This function uses a non-reentrant model
  6829 ;;
  6830                           
  6831                           	psect	text64
  6832  0030FC                     __ptext64:
  6833                           	callstack 0
  6834  0030FC                     _UART1_RxDataHandler:
  6835                           	callstack 20
  6836                           
  6837                           ;mcc_generated_files/uart1.c: 291:     uart1RxBuffer[uart1RxHead++] = U1RXB;
  6838                           
  6839                           ; BSR set to: 0
  6840                           ;incstack = 0
  6841  0030FC  0E00               	movlw	low _uart1RxBuffer
  6842  0030FE  2454               	addwf	_uart1RxHead^0,w,c	;volatile
  6843  003100  6ED9               	movwf	fsr2l,c
  6844  003102  6ADA               	clrf	fsr2h,c
  6845  003104  0E02               	movlw	high _uart1RxBuffer
  6846  003106  22DA               	addwfc	fsr2h,f,c
  6847  003108  006F F7A3 FFDF     	movff	15848,indf2	;volatile
  6848  00310E  2A54               	incf	_uart1RxHead^0,f,c	;volatile
  6849                           
  6850                           ;mcc_generated_files/uart1.c: 292:     if(sizeof(uart1RxBuffer) <= uart1RxHead)
  6851  003110  0E3F               	movlw	63
  6852  003112  6454               	cpfsgt	_uart1RxHead^0,c
  6853  003114  D002               	goto	i2l2588
  6854                           
  6855                           ;mcc_generated_files/uart1.c: 293:     {;mcc_generated_files/uart1.c: 294:         uart1
      +                          RxHead = 0;
  6856  003116  0E00               	movlw	0
  6857  003118  6E54               	movwf	_uart1RxHead^0,c	;volatile
  6858  00311A                     i2l2588:
  6859                           
  6860                           ;mcc_generated_files/uart1.c: 296:     uart1RxCount++;
  6861  00311A  0100               	movlb	0	; () banked
  6862  00311C  2B91               	incf	_uart1RxCount& (0+255),f,b	;volatile
  6863                           
  6864                           ; BSR set to: 0
  6865  00311E  0012               	return		;funcret
  6866  003120                     __end_of_UART1_RxDataHandler:
  6867                           	callstack 0
  6868                           
  6869                           ;
  6870                           ; Interrupt Vector Table @ 0x8
  6871                           ;
  6872                           
  6873                           	psect	ivt0x8
  6874  000008                     __pivt0x8:
  6875                           	callstack 0
  6876  000008                     ivt0x8_base:
  6877                           	callstack 0
  6878                           
  6879                           ; Vector 0 : SWINT
  6880  000008  0CA4               	dw	_Default_ISR shr (0+2)
  6881                           
  6882                           ; Vector 1 : HLVD
  6883  00000A  0CA4               	dw	_Default_ISR shr (0+2)
  6884                           
  6885                           ; Vector 2 : OSF
  6886  00000C  0CA4               	dw	_Default_ISR shr (0+2)
  6887                           
  6888                           ; Vector 3 : CSW
  6889  00000E  0CA4               	dw	_Default_ISR shr (0+2)
  6890                           
  6891                           ; Vector 4 : NVM
  6892  000010  0CA4               	dw	_Default_ISR shr (0+2)
  6893                           
  6894                           ; Vector 5 : SCAN
  6895  000012  0CA4               	dw	_Default_ISR shr (0+2)
  6896                           
  6897                           ; Vector 6 : CRC
  6898  000014  0CA4               	dw	_Default_ISR shr (0+2)
  6899                           
  6900                           ; Vector 7 : IOC
  6901  000016  0CA4               	dw	_Default_ISR shr (0+2)
  6902                           
  6903                           ; Vector 8 : INT0
  6904  000018  0CA4               	dw	_Default_ISR shr (0+2)
  6905                           
  6906                           ; Vector 9 : ZCD
  6907  00001A  0CA4               	dw	_Default_ISR shr (0+2)
  6908                           
  6909                           ; Vector 10 : AD
  6910  00001C  0CA4               	dw	_Default_ISR shr (0+2)
  6911                           
  6912                           ; Vector 11 : ADT
  6913  00001E  0CA4               	dw	_Default_ISR shr (0+2)
  6914                           
  6915                           ; Vector 12 : CMP1
  6916  000020  0CA4               	dw	_Default_ISR shr (0+2)
  6917                           
  6918                           ; Vector 13 : SMT1
  6919  000022  0CA4               	dw	_Default_ISR shr (0+2)
  6920                           
  6921                           ; Vector 14 : SMT1PRA
  6922  000024  0CA4               	dw	_Default_ISR shr (0+2)
  6923                           
  6924                           ; Vector 15 : SMT1PRW
  6925  000026  0CA4               	dw	_Default_ISR shr (0+2)
  6926                           
  6927                           ; Vector 16 : DMA1SCNT
  6928  000028  0CA4               	dw	_Default_ISR shr (0+2)
  6929                           
  6930                           ; Vector 17 : DMA1DCNT
  6931  00002A  0CA4               	dw	_Default_ISR shr (0+2)
  6932                           
  6933                           ; Vector 18 : DMA1OR
  6934  00002C  0CA4               	dw	_Default_ISR shr (0+2)
  6935                           
  6936                           ; Vector 19 : DMA1A
  6937  00002E  0CA4               	dw	_Default_ISR shr (0+2)
  6938                           
  6939                           ; Vector 20 : SPI1RX
  6940  000030  0CA4               	dw	_Default_ISR shr (0+2)
  6941                           
  6942                           ; Vector 21 : SPI1TX
  6943  000032  0CA4               	dw	_Default_ISR shr (0+2)
  6944                           
  6945                           ; Vector 22 : SPI1
  6946  000034  0CA4               	dw	_Default_ISR shr (0+2)
  6947                           
  6948                           ; Vector 23 : I2C1RX
  6949  000036  0CA4               	dw	_Default_ISR shr (0+2)
  6950                           
  6951                           ; Vector 24 : I2C1TX
  6952  000038  0CA4               	dw	_Default_ISR shr (0+2)
  6953                           
  6954                           ; Vector 25 : I2C1
  6955  00003A  0CA4               	dw	_Default_ISR shr (0+2)
  6956                           
  6957                           ; Vector 26 : I2C1E
  6958  00003C  0CA4               	dw	_Default_ISR shr (0+2)
  6959                           
  6960                           ; Vector 27 : U1RX
  6961  00003E  0C36               	dw	_UART1_rx_vect_isr shr (0+2)
  6962                           
  6963                           ; Vector 28 : U1TX
  6964  000040  0C2D               	dw	_UART1_tx_vect_isr shr (0+2)
  6965                           
  6966                           ; Vector 29 : U1E
  6967  000042  0CA4               	dw	_Default_ISR shr (0+2)
  6968                           
  6969                           ; Vector 30 : U1
  6970  000044  0CA4               	dw	_Default_ISR shr (0+2)
  6971                           
  6972                           ; Vector 31 : TMR0
  6973  000046  0B07               	dw	_TMR0_ISR shr (0+2)
  6974                           
  6975                           ; Vector 32 : TMR1
  6976  000048  0CA4               	dw	_Default_ISR shr (0+2)
  6977                           
  6978                           ; Vector 33 : TMR1G
  6979  00004A  0CA4               	dw	_Default_ISR shr (0+2)
  6980                           
  6981                           ; Vector 34 : TMR2
  6982  00004C  0CA4               	dw	_Default_ISR shr (0+2)
  6983                           
  6984                           ; Vector 35 : CCP1
  6985  00004E  0CA4               	dw	_Default_ISR shr (0+2)
  6986                           
  6987                           ; Vector 36 : Undefined
  6988  000050  002B               	dw	ivt0x8_undefint shr (0+2)
  6989                           
  6990                           ; Vector 37 : NCO1
  6991  000052  0CA4               	dw	_Default_ISR shr (0+2)
  6992                           
  6993                           ; Vector 38 : CWG1
  6994  000054  0CA4               	dw	_Default_ISR shr (0+2)
  6995                           
  6996                           ; Vector 39 : CLC1
  6997  000056  0CA4               	dw	_Default_ISR shr (0+2)
  6998                           
  6999                           ; Vector 40 : INT1
  7000  000058  0CA4               	dw	_Default_ISR shr (0+2)
  7001                           
  7002                           ; Vector 41 : CMP2
  7003  00005A  0CA4               	dw	_Default_ISR shr (0+2)
  7004                           
  7005                           ; Vector 42 : DMA2SCNT
  7006  00005C  0CA4               	dw	_Default_ISR shr (0+2)
  7007                           
  7008                           ; Vector 43 : DMA2DCNT
  7009  00005E  0CA4               	dw	_Default_ISR shr (0+2)
  7010                           
  7011                           ; Vector 44 : DMA2OR
  7012  000060  0CA4               	dw	_Default_ISR shr (0+2)
  7013                           
  7014                           ; Vector 45 : DMA2A
  7015  000062  0CA4               	dw	_Default_ISR shr (0+2)
  7016                           
  7017                           ; Vector 46 : I2C2RX
  7018  000064  0CA4               	dw	_Default_ISR shr (0+2)
  7019                           
  7020                           ; Vector 47 : I2C2TX
  7021  000066  0CA4               	dw	_Default_ISR shr (0+2)
  7022                           
  7023                           ; Vector 48 : I2C2
  7024  000068  0CA4               	dw	_Default_ISR shr (0+2)
  7025                           
  7026                           ; Vector 49 : I2C2E
  7027  00006A  0CA4               	dw	_Default_ISR shr (0+2)
  7028                           
  7029                           ; Vector 50 : U2RX
  7030  00006C  0C1B               	dw	_UART2_rx_vect_isr shr (0+2)
  7031                           
  7032                           ; Vector 51 : U2TX
  7033  00006E  0C12               	dw	_UART2_tx_vect_isr shr (0+2)
  7034                           
  7035                           ; Vector 52 : U2E
  7036  000070  0CA4               	dw	_Default_ISR shr (0+2)
  7037                           
  7038                           ; Vector 53 : U2
  7039  000072  0CA4               	dw	_Default_ISR shr (0+2)
  7040                           
  7041                           ; Vector 54 : TMR3
  7042  000074  0CA4               	dw	_Default_ISR shr (0+2)
  7043                           
  7044                           ; Vector 55 : TMR3G
  7045  000076  0CA4               	dw	_Default_ISR shr (0+2)
  7046                           
  7047                           ; Vector 56 : TMR4
  7048  000078  0CA4               	dw	_Default_ISR shr (0+2)
  7049                           
  7050                           ; Vector 57 : CCP2
  7051  00007A  0CA4               	dw	_Default_ISR shr (0+2)
  7052                           
  7053                           ; Vector 58 : Undefined
  7054  00007C  002B               	dw	ivt0x8_undefint shr (0+2)
  7055                           
  7056                           ; Vector 59 : CWG2
  7057  00007E  0CA4               	dw	_Default_ISR shr (0+2)
  7058                           
  7059                           ; Vector 60 : CLC2
  7060  000080  0CA4               	dw	_Default_ISR shr (0+2)
  7061                           
  7062                           ; Vector 61 : INT2
  7063  000082  0CA4               	dw	_Default_ISR shr (0+2)
  7064                           
  7065                           ; Vector 62 : Undefined
  7066  000084  002B               	dw	ivt0x8_undefint shr (0+2)
  7067                           
  7068                           ; Vector 63 : Undefined
  7069  000086  002B               	dw	ivt0x8_undefint shr (0+2)
  7070                           
  7071                           ; Vector 64 : Undefined
  7072  000088  002B               	dw	ivt0x8_undefint shr (0+2)
  7073                           
  7074                           ; Vector 65 : Undefined
  7075  00008A  002B               	dw	ivt0x8_undefint shr (0+2)
  7076                           
  7077                           ; Vector 66 : Undefined
  7078  00008C  002B               	dw	ivt0x8_undefint shr (0+2)
  7079                           
  7080                           ; Vector 67 : Undefined
  7081  00008E  002B               	dw	ivt0x8_undefint shr (0+2)
  7082                           
  7083                           ; Vector 68 : Undefined
  7084  000090  002B               	dw	ivt0x8_undefint shr (0+2)
  7085                           
  7086                           ; Vector 69 : Undefined
  7087  000092  002B               	dw	ivt0x8_undefint shr (0+2)
  7088                           
  7089                           ; Vector 70 : TMR5
  7090  000094  0BBA               	dw	_TMR5_ISR shr (0+2)
  7091                           
  7092                           ; Vector 71 : TMR5G
  7093  000096  0CA4               	dw	_Default_ISR shr (0+2)
  7094                           
  7095                           ; Vector 72 : TMR6
  7096  000098  0CA4               	dw	_Default_ISR shr (0+2)
  7097                           
  7098                           ; Vector 73 : CCP3
  7099  00009A  0CA4               	dw	_Default_ISR shr (0+2)
  7100                           
  7101                           ; Vector 74 : CWG3
  7102  00009C  0CA4               	dw	_Default_ISR shr (0+2)
  7103                           
  7104                           ; Vector 75 : CLC3
  7105  00009E  0CA4               	dw	_Default_ISR shr (0+2)
  7106                           
  7107                           ; Vector 76 : Undefined
  7108  0000A0  002B               	dw	ivt0x8_undefint shr (0+2)
  7109                           
  7110                           ; Vector 77 : Undefined
  7111  0000A2  002B               	dw	ivt0x8_undefint shr (0+2)
  7112                           
  7113                           ; Vector 78 : Undefined
  7114  0000A4  002B               	dw	ivt0x8_undefint shr (0+2)
  7115                           
  7116                           ; Vector 79 : Undefined
  7117  0000A6  002B               	dw	ivt0x8_undefint shr (0+2)
  7118                           
  7119                           ; Vector 80 : CCP4
  7120  0000A8  0CA4               	dw	_Default_ISR shr (0+2)
  7121                           
  7122                           ; Vector 81 : CLC4
  7123  0000AA  0CA4               	dw	_Default_ISR shr (0+2)
  7124  0000AC                     ivt0x8_undefint:
  7125                           	callstack 0
  7126  0000AC  00FF               	reset	
  7127                           
  7128                           	psect	text65
  7129  000000                     __ptext65:
  7130                           	callstack 0
  7131                           
  7132                           	psect	rparam
  7133  0000                     
  7134                           	psect	idloc
  7135                           
  7136                           ;Config register IDLOC0 @ 0x200000
  7137                           ;	unspecified, using default values
  7138  200000                     	org	2097152
  7139  200000  0FFF               	dw	4095
  7140                           
  7141                           ;Config register IDLOC1 @ 0x200002
  7142                           ;	unspecified, using default values
  7143  200002                     	org	2097154
  7144  200002  0FFF               	dw	4095
  7145                           
  7146                           ;Config register IDLOC2 @ 0x200004
  7147                           ;	unspecified, using default values
  7148  200004                     	org	2097156
  7149  200004  0FFF               	dw	4095
  7150                           
  7151                           ;Config register IDLOC3 @ 0x200006
  7152                           ;	unspecified, using default values
  7153  200006                     	org	2097158
  7154  200006  0FFF               	dw	4095
  7155                           
  7156                           ;Config register IDLOC4 @ 0x200008
  7157                           ;	unspecified, using default values
  7158  200008                     	org	2097160
  7159  200008  0FFF               	dw	4095
  7160                           
  7161                           ;Config register IDLOC5 @ 0x20000A
  7162                           ;	unspecified, using default values
  7163  20000A                     	org	2097162
  7164  20000A  0FFF               	dw	4095
  7165                           
  7166                           ;Config register IDLOC6 @ 0x20000C
  7167                           ;	unspecified, using default values
  7168  20000C                     	org	2097164
  7169  20000C  0FFF               	dw	4095
  7170                           
  7171                           ;Config register IDLOC7 @ 0x20000E
  7172                           ;	unspecified, using default values
  7173  20000E                     	org	2097166
  7174  20000E  0FFF               	dw	4095
  7175                           
  7176                           	psect	config
  7177                           
  7178                           ;Config register CONFIG1L @ 0x300000
  7179                           ;	External Oscillator Selection
  7180                           ;	FEXTOSC = ECH, EC (external clock) above 8 MHz; PFM set to high power
  7181                           ;	Reset Oscillator Selection
  7182                           ;	RSTOSC = EXTOSC_4PLL, EXTOSC with 4x PLL, with EXTOSC operating per FEXTOSC bits
  7183  300000                     	org	3145728
  7184  300000  AF                 	db	175
  7185                           
  7186                           ;Config register CONFIG1H @ 0x300001
  7187                           ;	Clock out Enable bit
  7188                           ;	CLKOUTEN = OFF, CLKOUT function is disabled
  7189                           ;	PRLOCKED One-Way Set Enable bit
  7190                           ;	PR1WAY = ON, PRLOCK bit can be cleared and set only once
  7191                           ;	Clock Switch Enable bit
  7192                           ;	CSWEN = ON, Writing to NOSC and NDIV is allowed
  7193                           ;	Fail-Safe Clock Monitor Enable bit
  7194                           ;	FCMEN = ON, Fail-Safe Clock Monitor enabled
  7195  300001                     	org	3145729
  7196  300001  FF                 	db	255
  7197                           
  7198                           ;Config register CONFIG2L @ 0x300002
  7199                           ;	MCLR Enable bit
  7200                           ;	MCLRE = EXTMCLR, If LVP = 0, MCLR pin is MCLR; If LVP = 1, RE3 pin function is MCLR
  7201                           ;	Power-up timer selection bits
  7202                           ;	PWRTS = PWRT_OFF, PWRT is disabled
  7203                           ;	Multi-vector enable bit
  7204                           ;	MVECEN = ON, Multi-vector enabled, Vector table used for interrupts
  7205                           ;	IVTLOCK bit One-way set enable bit
  7206                           ;	IVT1WAY = ON, IVTLOCK bit can be cleared and set only once
  7207                           ;	Low Power BOR Enable bit
  7208                           ;	LPBOREN = OFF, ULPBOR disabled
  7209                           ;	Brown-out Reset Enable bits
  7210                           ;	BOREN = SBORDIS, Brown-out Reset enabled , SBOREN bit is ignored
  7211  300002                     	org	3145730
  7212  300002  FF                 	db	255
  7213                           
  7214                           ;Config register CONFIG2H @ 0x300003
  7215                           ;	Brown-out Reset Voltage Selection bits
  7216                           ;	BORV = VBOR_2P45, Brown-out Reset Voltage (VBOR) set to 2.45V
  7217                           ;	ZCD Disable bit
  7218                           ;	ZCD = OFF, ZCD disabled. ZCD can be enabled by setting the ZCDSEN bit of ZCDCON
  7219                           ;	PPSLOCK bit One-Way Set Enable bit
  7220                           ;	PPS1WAY = ON, PPSLOCK bit can be cleared and set only once; PPS registers remain locke
      +                          d after one clear/set cycle
  7221                           ;	Stack Full/Underflow Reset Enable bit
  7222                           ;	STVREN = ON, Stack full/underflow will cause Reset
  7223                           ;	Debugger Enable bit
  7224                           ;	DEBUG = OFF, Background debugger disabled
  7225                           ;	Extended Instruction Set Enable bit
  7226                           ;	XINST = OFF, Extended Instruction Set and Indexed Addressing Mode disabled
  7227  300003                     	org	3145731
  7228  300003  FF                 	db	255
  7229                           
  7230                           ;Config register CONFIG3L @ 0x300004
  7231                           ;	WDT Period selection bits
  7232                           ;	WDTCPS = WDTCPS_15, Divider ratio 1:1048576
  7233                           ;	WDT operating mode
  7234                           ;	WDTE = ON, WDT enabled regardless of sleep
  7235  300004                     	org	3145732
  7236  300004  EF                 	db	239
  7237                           
  7238                           ;Config register CONFIG3H @ 0x300005
  7239                           ;	WDT Window Select bits
  7240                           ;	WDTCWS = WDTCWS_6, window always open (100%); no software control; keyed access requir
      +                          ed
  7241                           ;	WDT input clock selector
  7242                           ;	WDTCCS = LFINTOSC, WDT reference clock is the 31.0 kHz LFINTOSC
  7243  300005                     	org	3145733
  7244  300005  C6                 	db	198
  7245                           
  7246                           ;Config register CONFIG4L @ 0x300006
  7247                           ;	Boot Block Size selection bits
  7248                           ;	BBSIZE = BBSIZE_512, Boot Block size is 512 words
  7249                           ;	Boot Block enable bit
  7250                           ;	BBEN = OFF, Boot block disabled
  7251                           ;	Storage Area Flash enable bit
  7252                           ;	SAFEN = OFF, SAF disabled
  7253                           ;	Application Block write protection bit
  7254                           ;	WRTAPP = OFF, Application Block not write protected
  7255  300006                     	org	3145734
  7256  300006  FF                 	db	255
  7257                           
  7258                           ;Config register CONFIG4H @ 0x300007
  7259                           ;	Configuration Register Write Protection bit
  7260                           ;	WRTB = OFF, Configuration registers (300000-30000Bh) not write-protected
  7261                           ;	Boot Block Write Protection bit
  7262                           ;	WRTC = OFF, Boot Block (000000-0007FFh) not write-protected
  7263                           ;	Data EEPROM Write Protection bit
  7264                           ;	WRTD = OFF, Data EEPROM not write-protected
  7265                           ;	SAF Write protection bit
  7266                           ;	WRTSAF = OFF, SAF not Write Protected
  7267                           ;	Low Voltage Programming Enable bit
  7268                           ;	LVP = ON, Low voltage programming enabled. MCLR/VPP pin function is MCLR. MCLRE config
      +                          uration bit is ignored
  7269  300007                     	org	3145735
  7270  300007  FF                 	db	255
  7271                           
  7272                           ;Config register CONFIG5L @ 0x300008
  7273                           ;	PFM and Data EEPROM Code Protection bit
  7274                           ;	CP = OFF, PFM and Data EEPROM code protection disabled
  7275  300008                     	org	3145736
  7276  300008  FF                 	db	255
  7277                           
  7278                           ;Config register CONFIG5H @ 0x300009
  7279                           ;	unspecified, using default values
  7280  300009                     	org	3145737
  7281  300009  FF                 	db	255
  7282                           tosu	equ	0x3FFF
  7283                           tosh	equ	0x3FFE
  7284                           tosl	equ	0x3FFD
  7285                           stkptr	equ	0x3FFC
  7286                           pclatu	equ	0x3FFB
  7287                           pclath	equ	0x3FFA
  7288                           pcl	equ	0x3FF9
  7289                           tblptru	equ	0x3FF8
  7290                           tblptrh	equ	0x3FF7
  7291                           tblptrl	equ	0x3FF6
  7292                           tablat	equ	0x3FF5
  7293                           prodh	equ	0x3FF4
  7294                           prodl	equ	0x3FF3
  7295                           indf0	equ	0x3FEF
  7296                           postinc0	equ	0x3FEE
  7297                           postdec0	equ	0x3FED
  7298                           preinc0	equ	0x3FEC
  7299                           plusw0	equ	0x3FEB
  7300                           fsr0h	equ	0x3FEA
  7301                           fsr0l	equ	0x3FE9
  7302                           wreg	equ	0x3FE8
  7303                           indf1	equ	0x3FE7
  7304                           postinc1	equ	0x3FE6
  7305                           postdec1	equ	0x3FE5
  7306                           preinc1	equ	0x3FE4
  7307                           plusw1	equ	0x3FE3
  7308                           fsr1h	equ	0x3FE2
  7309                           fsr1l	equ	0x3FE1
  7310                           bsr	equ	0x3FE0
  7311                           indf2	equ	0x3FDF
  7312                           postinc2	equ	0x3FDE
  7313                           postdec2	equ	0x3FDD
  7314                           preinc2	equ	0x3FDC
  7315                           plusw2	equ	0x3FDB
  7316                           fsr2h	equ	0x3FDA
  7317                           fsr2l	equ	0x3FD9
  7318                           status	equ	0x3FD8

Data Sizes:
    Strings     51
    Constant    5
    Data        4
    BSS         502
    Persistent  0
    Stack       0

Auto Spaces:
    Space          Size  Autos    Used
    COMRAM           95     81      87
    BANK0           160     24      86
    BANK1           256      0     246
    BANK2           256      0     192
    BANK3           256     82      82
    BANK4           256      0       0
    BANK5           256      0       0
    BANK6           256      0       0
    BANK7           256      0       0
    BANK8           256      0       0
    BANK9           256      0       0
    BANK10          256      0       0
    BANK11          256      0       0
    BANK12          256      0       0
    BANK13          256      0       0
    BANK14          256      0       0
    BANK15          256      0       0
    BANK16          256      0       0
    BANK17          256      0       0
    BANK18          256      0       0
    BANK19          256      0       0
    BANK20          256      0       0
    BANK21          256      0       0
    BANK22          256      0       0
    BANK23          256      0       0
    BANK24          256      0       0
    BANK25          256      0       0
    BANK26          256      0       0
    BANK27          256      0       0
    BANK28          256      0       0
    BANK29          256      0       0
    BANK30          256      0       0
    BANK31          256      0       0

Pointer List with Targets:

    strncmp@_r	PTR const unsigned char  size(1) Largest target is 3
		 -> STR_6(CODE[3]), 

    strncmp@r	PTR const unsigned char  size(1) Largest target is 3
		 -> STR_6(CODE[3]), 

    strncmp@_l	PTR const unsigned char  size(1) Largest target is 27
		 -> STR_3(CODE[27]), 

    strncmp@l	PTR const unsigned char  size(1) Largest target is 27
		 -> STR_3(CODE[27]), 

    strlen@s	PTR const unsigned char  size(2) Largest target is 32
		 -> dbuf(BANK1[32]), 

    strlen@a	PTR const unsigned char  size(2) Largest target is 32
		 -> dbuf(BANK1[32]), 

    fputs@s	PTR const unsigned char  size(2) Largest target is 32
		 -> dbuf(BANK1[32]), 

    fputs@fp	PTR struct _IO_FILE size(1) Largest target is 7
		 -> sprintf@f(BANK0[6]), 

    fputc@fp.buffer	PTR unsigned char  size(2) Largest target is 80
		 -> main@buffer(BANK3[80]), 

    fputc@fp	PTR struct _IO_FILE size(1) Largest target is 7
		 -> sprintf@f(BANK0[6]), 

    vfprintf@ap	PTR PTR void  size(1) Largest target is 1
		 -> sprintf@ap(BANK0[1]), 

    vfprintf@fp	PTR struct _IO_FILE size(1) Largest target is 7
		 -> sprintf@f(BANK0[6]), 

    vfprintf@fmt	PTR const unsigned char  size(1) Largest target is 27
		 -> STR_3(CODE[27]), 

    vfprintf@cfmt	PTR unsigned char  size(1) Largest target is 27
		 -> STR_3(CODE[27]), 

    vfpfcnvrt@fp	PTR struct _IO_FILE size(1) Largest target is 7
		 -> sprintf@f(BANK0[6]), 

    vfpfcnvrt@ap	PTR PTR void  size(1) Largest target is 1
		 -> sprintf@ap(BANK0[1]), 

    vfpfcnvrt@fmt	PTR PTR unsigned char  size(1) Largest target is 1
		 -> vfprintf@cfmt(COMRAM[1]), 

    utoa@fp	PTR struct _IO_FILE size(1) Largest target is 7
		 -> sprintf@f(BANK0[6]), 

    pad@fp	PTR struct _IO_FILE size(1) Largest target is 7
		 -> sprintf@f(BANK0[6]), 

    pad@buf	PTR unsigned char  size(2) Largest target is 32
		 -> dbuf(BANK1[32]), 

    sprintf@fmt	PTR const unsigned char  size(1) Largest target is 27
		 -> STR_3(CODE[27]), 

    sprintf@s	PTR unsigned char  size(2) Largest target is 80
		 -> main@buffer(BANK3[80]), 

    sprintf@ap	PTR void [1] size(1) Largest target is 2
		 -> ?_sprintf(BANK0[2]), 

    S2230_IO_FILE$buffer	PTR unsigned char  size(2) Largest target is 80
		 -> main@buffer(BANK3[80]), 

    f.buffer	PTR unsigned char  size(2) Largest target is 80
		 -> main@buffer(BANK3[80]), 

    build_time	PTR const unsigned char  size(1) Largest target is 9
		 -> STR_2(CODE[9]), 

    build_date	PTR const unsigned char  size(1) Largest target is 12
		 -> STR_1(CODE[12]), 

    UART1_SetTxInterruptHandler@InterruptHandler	PTR FTN()void  size(3) Largest target is 1
		 -> UART1_Transmit_ISR(), 

    UART1_SetRxInterruptHandler@InterruptHandler	PTR FTN()void  size(3) Largest target is 1
		 -> UART1_Receive_ISR(), 

    UART1_SetErrorHandler@interruptHandler	PTR FTN()void  size(3) Largest target is 1
		 -> UART1_DefaultErrorHandler(), 

    UART1_SetOverrunErrorHandler@interruptHandler	PTR FTN()void  size(3) Largest target is 1
		 -> UART1_DefaultOverrunErrorHandler(), 

    UART1_SetFramingErrorHandler@interruptHandler	PTR FTN()void  size(3) Largest target is 1
		 -> UART1_DefaultFramingErrorHandler(), 

    UART1_ErrorHandler	PTR FTN()void  size(3) Largest target is 1
		 -> UART1_DefaultErrorHandler(), Absolute function(), 

    UART1_OverrunErrorHandler	PTR FTN()void  size(3) Largest target is 1
		 -> UART1_DefaultOverrunErrorHandler(), Absolute function(), 

    UART1_FramingErrorHandler	PTR FTN()void  size(3) Largest target is 1
		 -> UART1_DefaultFramingErrorHandler(), Absolute function(), 

    UART1_RxInterruptHandler	PTR FTN()void  size(3) Largest target is 1
		 -> UART1_Receive_ISR(), Absolute function(), 

    UART1_TxInterruptHandler	PTR FTN()void  size(3) Largest target is 1
		 -> UART1_Transmit_ISR(), Absolute function(), 

    UART2_SetTxInterruptHandler@InterruptHandler	PTR FTN()void  size(3) Largest target is 1
		 -> UART2_Transmit_ISR(), 

    UART2_SetRxInterruptHandler@InterruptHandler	PTR FTN()void  size(3) Largest target is 1
		 -> UART2_Receive_ISR(), 

    UART2_SetErrorHandler@interruptHandler	PTR FTN()void  size(3) Largest target is 1
		 -> UART2_DefaultErrorHandler(), 

    UART2_SetOverrunErrorHandler@interruptHandler	PTR FTN()void  size(3) Largest target is 1
		 -> UART2_DefaultOverrunErrorHandler(), 

    UART2_SetFramingErrorHandler@interruptHandler	PTR FTN()void  size(3) Largest target is 1
		 -> UART2_DefaultFramingErrorHandler(), 

    UART2_ErrorHandler	PTR FTN()void  size(3) Largest target is 1
		 -> UART2_DefaultErrorHandler(), Absolute function(), 

    UART2_OverrunErrorHandler	PTR FTN()void  size(3) Largest target is 1
		 -> UART2_DefaultOverrunErrorHandler(), Absolute function(), 

    UART2_FramingErrorHandler	PTR FTN()void  size(3) Largest target is 1
		 -> UART2_DefaultFramingErrorHandler(), Absolute function(), 

    UART2_RxInterruptHandler	PTR FTN()void  size(3) Largest target is 1
		 -> UART2_Receive_ISR(), Absolute function(), 

    UART2_TxInterruptHandler	PTR FTN()void  size(3) Largest target is 1
		 -> UART2_Transmit_ISR(), Absolute function(), 

    TMR0_SetInterruptHandler@InterruptHandler	PTR FTN()void  size(3) Largest target is 1
		 -> TMR0_DefaultInterruptHandler(), 

    TMR0_InterruptHandler	PTR FTN()void  size(3) Largest target is 1
		 -> TMR0_DefaultInterruptHandler(), Absolute function(), 

    TMR5_SetInterruptHandler@InterruptHandler	PTR FTN()void  size(3) Largest target is 1
		 -> TMR5_DefaultInterruptHandler(), 

    TMR5_InterruptHandler	PTR FTN()void  size(3) Largest target is 1
		 -> Absolute function(), TMR5_DefaultInterruptHandler(), 


Critical Paths under _main in COMRAM

    _sprintf->_vfprintf
    _vfprintf->_vfpfcnvrt
    _vfpfcnvrt->_utoa
    _utoa->___lodiv
    _pad->_fputs
    _fputs->_fputc
    _controller_work->_ADCC_GetConversionResult
    _WaitMs->_StartTimer
    _SYSTEM_Initialize->_TMR0_Initialize
    _SYSTEM_Initialize->_TMR5_Initialize
    _UART2_Initialize->_UART2_SetErrorHandler
    _UART2_Initialize->_UART2_SetFramingErrorHandler
    _UART2_Initialize->_UART2_SetOverrunErrorHandler
    _UART2_Initialize->_UART2_SetRxInterruptHandler
    _UART2_Initialize->_UART2_SetTxInterruptHandler
    _UART1_Initialize->_UART1_SetErrorHandler
    _UART1_Initialize->_UART1_SetFramingErrorHandler
    _UART1_Initialize->_UART1_SetOverrunErrorHandler
    _UART1_Initialize->_UART1_SetRxInterruptHandler
    _UART1_Initialize->_UART1_SetTxInterruptHandler
    _TMR5_Initialize->_TMR5_SetInterruptHandler
    _TMR0_Initialize->_TMR0_SetInterruptHandler

Critical Paths under _Default_ISR in COMRAM

    None.

Critical Paths under _TMR5_ISR in COMRAM

    _TMR5_ISR->_TMR5_WriteTimer

Critical Paths under _TMR0_ISR in COMRAM

    None.

Critical Paths under _UART2_tx_vect_isr in COMRAM

    None.

Critical Paths under _UART2_rx_vect_isr in COMRAM

    None.

Critical Paths under _UART1_tx_vect_isr in COMRAM

    None.

Critical Paths under _UART1_rx_vect_isr in COMRAM

    None.

Critical Paths under _main in BANK0

    _main->_sprintf

Critical Paths under _Default_ISR in BANK0

    None.

Critical Paths under _TMR5_ISR in BANK0

    None.

Critical Paths under _TMR0_ISR in BANK0

    None.

Critical Paths under _UART2_tx_vect_isr in BANK0

    None.

Critical Paths under _UART2_rx_vect_isr in BANK0

    None.

Critical Paths under _UART1_tx_vect_isr in BANK0

    None.

Critical Paths under _UART1_rx_vect_isr in BANK0

    None.

Critical Paths under _main in BANK1

    None.

Critical Paths under _Default_ISR in BANK1

    None.

Critical Paths under _TMR5_ISR in BANK1

    None.

Critical Paths under _TMR0_ISR in BANK1

    None.

Critical Paths under _UART2_tx_vect_isr in BANK1

    None.

Critical Paths under _UART2_rx_vect_isr in BANK1

    None.

Critical Paths under _UART1_tx_vect_isr in BANK1

    None.

Critical Paths under _UART1_rx_vect_isr in BANK1

    None.

Critical Paths under _main in BANK2

    None.

Critical Paths under _Default_ISR in BANK2

    None.

Critical Paths under _TMR5_ISR in BANK2

    None.

Critical Paths under _TMR0_ISR in BANK2

    None.

Critical Paths under _UART2_tx_vect_isr in BANK2

    None.

Critical Paths under _UART2_rx_vect_isr in BANK2

    None.

Critical Paths under _UART1_tx_vect_isr in BANK2

    None.

Critical Paths under _UART1_rx_vect_isr in BANK2

    None.

Critical Paths under _main in BANK3

    None.

Critical Paths under _Default_ISR in BANK3

    None.

Critical Paths under _TMR5_ISR in BANK3

    None.

Critical Paths under _TMR0_ISR in BANK3

    None.

Critical Paths under _UART2_tx_vect_isr in BANK3

    None.

Critical Paths under _UART2_rx_vect_isr in BANK3

    None.

Critical Paths under _UART1_tx_vect_isr in BANK3

    None.

Critical Paths under _UART1_rx_vect_isr in BANK3

    None.

Critical Paths under _main in BANK4

    None.

Critical Paths under _Default_ISR in BANK4

    None.

Critical Paths under _TMR5_ISR in BANK4

    None.

Critical Paths under _TMR0_ISR in BANK4

    None.

Critical Paths under _UART2_tx_vect_isr in BANK4

    None.

Critical Paths under _UART2_rx_vect_isr in BANK4

    None.

Critical Paths under _UART1_tx_vect_isr in BANK4

    None.

Critical Paths under _UART1_rx_vect_isr in BANK4

    None.

Critical Paths under _main in BANK5

    None.

Critical Paths under _Default_ISR in BANK5

    None.

Critical Paths under _TMR5_ISR in BANK5

    None.

Critical Paths under _TMR0_ISR in BANK5

    None.

Critical Paths under _UART2_tx_vect_isr in BANK5

    None.

Critical Paths under _UART2_rx_vect_isr in BANK5

    None.

Critical Paths under _UART1_tx_vect_isr in BANK5

    None.

Critical Paths under _UART1_rx_vect_isr in BANK5

    None.

Critical Paths under _main in BANK6

    None.

Critical Paths under _Default_ISR in BANK6

    None.

Critical Paths under _TMR5_ISR in BANK6

    None.

Critical Paths under _TMR0_ISR in BANK6

    None.

Critical Paths under _UART2_tx_vect_isr in BANK6

    None.

Critical Paths under _UART2_rx_vect_isr in BANK6

    None.

Critical Paths under _UART1_tx_vect_isr in BANK6

    None.

Critical Paths under _UART1_rx_vect_isr in BANK6

    None.

Critical Paths under _main in BANK7

    None.

Critical Paths under _Default_ISR in BANK7

    None.

Critical Paths under _TMR5_ISR in BANK7

    None.

Critical Paths under _TMR0_ISR in BANK7

    None.

Critical Paths under _UART2_tx_vect_isr in BANK7

    None.

Critical Paths under _UART2_rx_vect_isr in BANK7

    None.

Critical Paths under _UART1_tx_vect_isr in BANK7

    None.

Critical Paths under _UART1_rx_vect_isr in BANK7

    None.

Critical Paths under _main in BANK8

    None.

Critical Paths under _Default_ISR in BANK8

    None.

Critical Paths under _TMR5_ISR in BANK8

    None.

Critical Paths under _TMR0_ISR in BANK8

    None.

Critical Paths under _UART2_tx_vect_isr in BANK8

    None.

Critical Paths under _UART2_rx_vect_isr in BANK8

    None.

Critical Paths under _UART1_tx_vect_isr in BANK8

    None.

Critical Paths under _UART1_rx_vect_isr in BANK8

    None.

Critical Paths under _main in BANK9

    None.

Critical Paths under _Default_ISR in BANK9

    None.

Critical Paths under _TMR5_ISR in BANK9

    None.

Critical Paths under _TMR0_ISR in BANK9

    None.

Critical Paths under _UART2_tx_vect_isr in BANK9

    None.

Critical Paths under _UART2_rx_vect_isr in BANK9

    None.

Critical Paths under _UART1_tx_vect_isr in BANK9

    None.

Critical Paths under _UART1_rx_vect_isr in BANK9

    None.

Critical Paths under _main in BANK10

    None.

Critical Paths under _Default_ISR in BANK10

    None.

Critical Paths under _TMR5_ISR in BANK10

    None.

Critical Paths under _TMR0_ISR in BANK10

    None.

Critical Paths under _UART2_tx_vect_isr in BANK10

    None.

Critical Paths under _UART2_rx_vect_isr in BANK10

    None.

Critical Paths under _UART1_tx_vect_isr in BANK10

    None.

Critical Paths under _UART1_rx_vect_isr in BANK10

    None.

Critical Paths under _main in BANK11

    None.

Critical Paths under _Default_ISR in BANK11

    None.

Critical Paths under _TMR5_ISR in BANK11

    None.

Critical Paths under _TMR0_ISR in BANK11

    None.

Critical Paths under _UART2_tx_vect_isr in BANK11

    None.

Critical Paths under _UART2_rx_vect_isr in BANK11

    None.

Critical Paths under _UART1_tx_vect_isr in BANK11

    None.

Critical Paths under _UART1_rx_vect_isr in BANK11

    None.

Critical Paths under _main in BANK12

    None.

Critical Paths under _Default_ISR in BANK12

    None.

Critical Paths under _TMR5_ISR in BANK12

    None.

Critical Paths under _TMR0_ISR in BANK12

    None.

Critical Paths under _UART2_tx_vect_isr in BANK12

    None.

Critical Paths under _UART2_rx_vect_isr in BANK12

    None.

Critical Paths under _UART1_tx_vect_isr in BANK12

    None.

Critical Paths under _UART1_rx_vect_isr in BANK12

    None.

Critical Paths under _main in BANK13

    None.

Critical Paths under _Default_ISR in BANK13

    None.

Critical Paths under _TMR5_ISR in BANK13

    None.

Critical Paths under _TMR0_ISR in BANK13

    None.

Critical Paths under _UART2_tx_vect_isr in BANK13

    None.

Critical Paths under _UART2_rx_vect_isr in BANK13

    None.

Critical Paths under _UART1_tx_vect_isr in BANK13

    None.

Critical Paths under _UART1_rx_vect_isr in BANK13

    None.

Critical Paths under _main in BANK14

    None.

Critical Paths under _Default_ISR in BANK14

    None.

Critical Paths under _TMR5_ISR in BANK14

    None.

Critical Paths under _TMR0_ISR in BANK14

    None.

Critical Paths under _UART2_tx_vect_isr in BANK14

    None.

Critical Paths under _UART2_rx_vect_isr in BANK14

    None.

Critical Paths under _UART1_tx_vect_isr in BANK14

    None.

Critical Paths under _UART1_rx_vect_isr in BANK14

    None.

Critical Paths under _main in BANK15

    None.

Critical Paths under _Default_ISR in BANK15

    None.

Critical Paths under _TMR5_ISR in BANK15

    None.

Critical Paths under _TMR0_ISR in BANK15

    None.

Critical Paths under _UART2_tx_vect_isr in BANK15

    None.

Critical Paths under _UART2_rx_vect_isr in BANK15

    None.

Critical Paths under _UART1_tx_vect_isr in BANK15

    None.

Critical Paths under _UART1_rx_vect_isr in BANK15

    None.

Critical Paths under _main in BANK16

    None.

Critical Paths under _Default_ISR in BANK16

    None.

Critical Paths under _TMR5_ISR in BANK16

    None.

Critical Paths under _TMR0_ISR in BANK16

    None.

Critical Paths under _UART2_tx_vect_isr in BANK16

    None.

Critical Paths under _UART2_rx_vect_isr in BANK16

    None.

Critical Paths under _UART1_tx_vect_isr in BANK16

    None.

Critical Paths under _UART1_rx_vect_isr in BANK16

    None.

Critical Paths under _main in BANK17

    None.

Critical Paths under _Default_ISR in BANK17

    None.

Critical Paths under _TMR5_ISR in BANK17

    None.

Critical Paths under _TMR0_ISR in BANK17

    None.

Critical Paths under _UART2_tx_vect_isr in BANK17

    None.

Critical Paths under _UART2_rx_vect_isr in BANK17

    None.

Critical Paths under _UART1_tx_vect_isr in BANK17

    None.

Critical Paths under _UART1_rx_vect_isr in BANK17

    None.

Critical Paths under _main in BANK18

    None.

Critical Paths under _Default_ISR in BANK18

    None.

Critical Paths under _TMR5_ISR in BANK18

    None.

Critical Paths under _TMR0_ISR in BANK18

    None.

Critical Paths under _UART2_tx_vect_isr in BANK18

    None.

Critical Paths under _UART2_rx_vect_isr in BANK18

    None.

Critical Paths under _UART1_tx_vect_isr in BANK18

    None.

Critical Paths under _UART1_rx_vect_isr in BANK18

    None.

Critical Paths under _main in BANK19

    None.

Critical Paths under _Default_ISR in BANK19

    None.

Critical Paths under _TMR5_ISR in BANK19

    None.

Critical Paths under _TMR0_ISR in BANK19

    None.

Critical Paths under _UART2_tx_vect_isr in BANK19

    None.

Critical Paths under _UART2_rx_vect_isr in BANK19

    None.

Critical Paths under _UART1_tx_vect_isr in BANK19

    None.

Critical Paths under _UART1_rx_vect_isr in BANK19

    None.

Critical Paths under _main in BANK20

    None.

Critical Paths under _Default_ISR in BANK20

    None.

Critical Paths under _TMR5_ISR in BANK20

    None.

Critical Paths under _TMR0_ISR in BANK20

    None.

Critical Paths under _UART2_tx_vect_isr in BANK20

    None.

Critical Paths under _UART2_rx_vect_isr in BANK20

    None.

Critical Paths under _UART1_tx_vect_isr in BANK20

    None.

Critical Paths under _UART1_rx_vect_isr in BANK20

    None.

Critical Paths under _main in BANK21

    None.

Critical Paths under _Default_ISR in BANK21

    None.

Critical Paths under _TMR5_ISR in BANK21

    None.

Critical Paths under _TMR0_ISR in BANK21

    None.

Critical Paths under _UART2_tx_vect_isr in BANK21

    None.

Critical Paths under _UART2_rx_vect_isr in BANK21

    None.

Critical Paths under _UART1_tx_vect_isr in BANK21

    None.

Critical Paths under _UART1_rx_vect_isr in BANK21

    None.

Critical Paths under _main in BANK22

    None.

Critical Paths under _Default_ISR in BANK22

    None.

Critical Paths under _TMR5_ISR in BANK22

    None.

Critical Paths under _TMR0_ISR in BANK22

    None.

Critical Paths under _UART2_tx_vect_isr in BANK22

    None.

Critical Paths under _UART2_rx_vect_isr in BANK22

    None.

Critical Paths under _UART1_tx_vect_isr in BANK22

    None.

Critical Paths under _UART1_rx_vect_isr in BANK22

    None.

Critical Paths under _main in BANK23

    None.

Critical Paths under _Default_ISR in BANK23

    None.

Critical Paths under _TMR5_ISR in BANK23

    None.

Critical Paths under _TMR0_ISR in BANK23

    None.

Critical Paths under _UART2_tx_vect_isr in BANK23

    None.

Critical Paths under _UART2_rx_vect_isr in BANK23

    None.

Critical Paths under _UART1_tx_vect_isr in BANK23

    None.

Critical Paths under _UART1_rx_vect_isr in BANK23

    None.

Critical Paths under _main in BANK24

    None.

Critical Paths under _Default_ISR in BANK24

    None.

Critical Paths under _TMR5_ISR in BANK24

    None.

Critical Paths under _TMR0_ISR in BANK24

    None.

Critical Paths under _UART2_tx_vect_isr in BANK24

    None.

Critical Paths under _UART2_rx_vect_isr in BANK24

    None.

Critical Paths under _UART1_tx_vect_isr in BANK24

    None.

Critical Paths under _UART1_rx_vect_isr in BANK24

    None.

Critical Paths under _main in BANK25

    None.

Critical Paths under _Default_ISR in BANK25

    None.

Critical Paths under _TMR5_ISR in BANK25

    None.

Critical Paths under _TMR0_ISR in BANK25

    None.

Critical Paths under _UART2_tx_vect_isr in BANK25

    None.

Critical Paths under _UART2_rx_vect_isr in BANK25

    None.

Critical Paths under _UART1_tx_vect_isr in BANK25

    None.

Critical Paths under _UART1_rx_vect_isr in BANK25

    None.

Critical Paths under _main in BANK26

    None.

Critical Paths under _Default_ISR in BANK26

    None.

Critical Paths under _TMR5_ISR in BANK26

    None.

Critical Paths under _TMR0_ISR in BANK26

    None.

Critical Paths under _UART2_tx_vect_isr in BANK26

    None.

Critical Paths under _UART2_rx_vect_isr in BANK26

    None.

Critical Paths under _UART1_tx_vect_isr in BANK26

    None.

Critical Paths under _UART1_rx_vect_isr in BANK26

    None.

Critical Paths under _main in BANK27

    None.

Critical Paths under _Default_ISR in BANK27

    None.

Critical Paths under _TMR5_ISR in BANK27

    None.

Critical Paths under _TMR0_ISR in BANK27

    None.

Critical Paths under _UART2_tx_vect_isr in BANK27

    None.

Critical Paths under _UART2_rx_vect_isr in BANK27

    None.

Critical Paths under _UART1_tx_vect_isr in BANK27

    None.

Critical Paths under _UART1_rx_vect_isr in BANK27

    None.

Critical Paths under _main in BANK28

    None.

Critical Paths under _Default_ISR in BANK28

    None.

Critical Paths under _TMR5_ISR in BANK28

    None.

Critical Paths under _TMR0_ISR in BANK28

    None.

Critical Paths under _UART2_tx_vect_isr in BANK28

    None.

Critical Paths under _UART2_rx_vect_isr in BANK28

    None.

Critical Paths under _UART1_tx_vect_isr in BANK28

    None.

Critical Paths under _UART1_rx_vect_isr in BANK28

    None.

Critical Paths under _main in BANK29

    None.

Critical Paths under _Default_ISR in BANK29

    None.

Critical Paths under _TMR5_ISR in BANK29

    None.

Critical Paths under _TMR0_ISR in BANK29

    None.

Critical Paths under _UART2_tx_vect_isr in BANK29

    None.

Critical Paths under _UART2_rx_vect_isr in BANK29

    None.

Critical Paths under _UART1_tx_vect_isr in BANK29

    None.

Critical Paths under _UART1_rx_vect_isr in BANK29

    None.

Critical Paths under _main in BANK30

    None.

Critical Paths under _Default_ISR in BANK30

    None.

Critical Paths under _TMR5_ISR in BANK30

    None.

Critical Paths under _TMR0_ISR in BANK30

    None.

Critical Paths under _UART2_tx_vect_isr in BANK30

    None.

Critical Paths under _UART2_rx_vect_isr in BANK30

    None.

Critical Paths under _UART1_tx_vect_isr in BANK30

    None.

Critical Paths under _UART1_rx_vect_isr in BANK30

    None.

Critical Paths under _main in BANK31

    None.

Critical Paths under _Default_ISR in BANK31

    None.

Critical Paths under _TMR5_ISR in BANK31

    None.

Critical Paths under _TMR0_ISR in BANK31

    None.

Critical Paths under _UART2_tx_vect_isr in BANK31

    None.

Critical Paths under _UART2_rx_vect_isr in BANK31

    None.

Critical Paths under _UART1_tx_vect_isr in BANK31

    None.

Critical Paths under _UART1_rx_vect_isr in BANK31

    None.

Call Graph Tables:

 ---------------------------------------------------------------------------------
 (Depth) Function   	        Calls       Base Space   Used Autos Params    Refs
 ---------------------------------------------------------------------------------
 (0) _main                                                82    82      0   11821
                                              0 BANK3     82    82      0
                  _SYSTEM_Initialize
                         _StartTimer
                    _TMR0_StartTimer
                          _TimerDone
                             _WaitMs
                    _controller_work
                            _sprintf
 ---------------------------------------------------------------------------------
 (1) _sprintf                                             24     9     15    8477
                                              0 BANK0     24     9     15
                           _vfprintf
 ---------------------------------------------------------------------------------
 (2) _vfprintf                                             4     1      3    7985
                                             77 COMRAM     4     1      3
                          _vfpfcnvrt
 ---------------------------------------------------------------------------------
 (3) _vfpfcnvrt                                           42    39      3    7506
                                             61 COMRAM    16    13      3
                              _fputc
                            _strncmp
                               _utoa
 ---------------------------------------------------------------------------------
 (4) _utoa                                                31    22      9    5009
                                             30 COMRAM    31    22      9
                            ___lodiv
                            ___lomod
                                _pad
 ---------------------------------------------------------------------------------
 (5) _pad                                                 10     5      5    3417
                                             19 COMRAM    10     5      5
                              _fputc
                              _fputs
                             _strlen
 ---------------------------------------------------------------------------------
 (6) _strlen                                               4     2      2     220
                                              5 COMRAM     4     2      2
 ---------------------------------------------------------------------------------
 (6) _fputs                                                6     3      3    1537
                                             13 COMRAM     6     3      3
                              _fputc
 ---------------------------------------------------------------------------------
 (7) _fputc                                                8     5      3    1037
                                              5 COMRAM     8     5      3
                              _putch
 ---------------------------------------------------------------------------------
 (8) _putch                                                1     1      0       0
 ---------------------------------------------------------------------------------
 (5) ___lomod                                             17     1     16     412
                                              5 COMRAM    17     1     16
 ---------------------------------------------------------------------------------
 (5) ___lodiv                                             25     9     16     421
                                              5 COMRAM    25     9     16
 ---------------------------------------------------------------------------------
 (4) _strncmp                                              7     3      4     595
                                              5 COMRAM     7     3      4
 ---------------------------------------------------------------------------------
 (1) _controller_work                                      2     0      2      31
                                              9 COMRAM     2     0      2
           _ADCC_GetConversionResult
              _ADCC_IsConversionDone
               _ADCC_StartConversion
 ---------------------------------------------------------------------------------
 (2) _ADCC_StartConversion                                 1     1      0      31
                                              5 COMRAM     1     1      0
 ---------------------------------------------------------------------------------
 (2) _ADCC_IsConversionDone                                0     0      0       0
 ---------------------------------------------------------------------------------
 (2) _ADCC_GetConversionResult                             4     2      2       0
                                              5 COMRAM     4     2      2
 ---------------------------------------------------------------------------------
 (1) _WaitMs                                               2     0      2     934
                                             10 COMRAM     2     0      2
                         _StartTimer
                          _TimerDone
 ---------------------------------------------------------------------------------
 (2) _TimerDone                                            3     3      0      31
                                              5 COMRAM     3     3      0
 ---------------------------------------------------------------------------------
 (2) _StartTimer                                           5     3      2     782
                                              5 COMRAM     5     3      2
 ---------------------------------------------------------------------------------
 (1) _TMR0_StartTimer                                      0     0      0       0
 ---------------------------------------------------------------------------------
 (1) _SYSTEM_Initialize                                    0     0      0    1486
                    _ADCC_Initialize
               _INTERRUPT_Initialize
              _OSCILLATOR_Initialize
             _PIN_MANAGER_Initialize
                     _PMD_Initialize
                    _TMR0_Initialize
                    _TMR5_Initialize
                   _UART1_Initialize
                   _UART2_Initialize
 ---------------------------------------------------------------------------------
 (2) _UART2_Initialize                                     0     0      0     605
              _UART2_SetErrorHandler
       _UART2_SetFramingErrorHandler
       _UART2_SetOverrunErrorHandler
        _UART2_SetRxInterruptHandler
        _UART2_SetTxInterruptHandler
 ---------------------------------------------------------------------------------
 (3) _UART2_SetTxInterruptHandler                          3     0      3     121
                                              5 COMRAM     3     0      3
 ---------------------------------------------------------------------------------
 (3) _UART2_SetRxInterruptHandler                          3     0      3     121
                                              5 COMRAM     3     0      3
 ---------------------------------------------------------------------------------
 (3) _UART2_SetOverrunErrorHandler                         3     0      3     121
                                              5 COMRAM     3     0      3
 ---------------------------------------------------------------------------------
 (3) _UART2_SetFramingErrorHandler                         3     0      3     121
                                              5 COMRAM     3     0      3
 ---------------------------------------------------------------------------------
 (3) _UART2_SetErrorHandler                                3     0      3     121
                                              5 COMRAM     3     0      3
 ---------------------------------------------------------------------------------
 (2) _UART1_Initialize                                     0     0      0     605
              _UART1_SetErrorHandler
       _UART1_SetFramingErrorHandler
       _UART1_SetOverrunErrorHandler
        _UART1_SetRxInterruptHandler
        _UART1_SetTxInterruptHandler
 ---------------------------------------------------------------------------------
 (3) _UART1_SetTxInterruptHandler                          3     0      3     121
                                              5 COMRAM     3     0      3
 ---------------------------------------------------------------------------------
 (3) _UART1_SetRxInterruptHandler                          3     0      3     121
                                              5 COMRAM     3     0      3
 ---------------------------------------------------------------------------------
 (3) _UART1_SetOverrunErrorHandler                         3     0      3     121
                                              5 COMRAM     3     0      3
 ---------------------------------------------------------------------------------
 (3) _UART1_SetFramingErrorHandler                         3     0      3     121
                                              5 COMRAM     3     0      3
 ---------------------------------------------------------------------------------
 (3) _UART1_SetErrorHandler                                3     0      3     121
                                              5 COMRAM     3     0      3
 ---------------------------------------------------------------------------------
 (2) _TMR5_Initialize                                      2     2      0     121
                                              8 COMRAM     2     2      0
           _TMR5_SetInterruptHandler
 ---------------------------------------------------------------------------------
 (3) _TMR5_SetInterruptHandler                             3     0      3     121
                                              5 COMRAM     3     0      3
 ---------------------------------------------------------------------------------
 (2) _TMR0_Initialize                                      2     2      0     121
                                              8 COMRAM     2     2      0
           _TMR0_SetInterruptHandler
 ---------------------------------------------------------------------------------
 (3) _TMR0_SetInterruptHandler                             3     0      3     121
                                              5 COMRAM     3     0      3
 ---------------------------------------------------------------------------------
 (2) _PMD_Initialize                                       0     0      0       0
 ---------------------------------------------------------------------------------
 (2) _PIN_MANAGER_Initialize                               0     0      0       0
 ---------------------------------------------------------------------------------
 (2) _OSCILLATOR_Initialize                                0     0      0       0
 ---------------------------------------------------------------------------------
 (2) _INTERRUPT_Initialize                                 1     1      0      34
                                              5 COMRAM     1     1      0
 ---------------------------------------------------------------------------------
 (2) _ADCC_Initialize                                      0     0      0       0
 ---------------------------------------------------------------------------------
 Estimated maximum stack depth 8
 ---------------------------------------------------------------------------------
 (Depth) Function   	        Calls       Base Space   Used Autos Params    Refs
 ---------------------------------------------------------------------------------
 (9) _Default_ISR                                          0     0      0       0
 ---------------------------------------------------------------------------------
 Estimated maximum stack depth 9
 ---------------------------------------------------------------------------------
 (Depth) Function   	        Calls       Base Space   Used Autos Params    Refs
 ---------------------------------------------------------------------------------
 (9) _TMR5_ISR                                             0     0      0     229
                   Absolute function *
       _TMR5_DefaultInterruptHandler *
                    _TMR5_WriteTimer
 ---------------------------------------------------------------------------------
 (10) _TMR5_WriteTimer                                     2     0      2     229
                                              0 COMRAM     2     0      2
 ---------------------------------------------------------------------------------
 (10) _TMR5_DefaultInterruptHandler                        1     1      0       0
                                              0 COMRAM     1     1      0
 ---------------------------------------------------------------------------------
 (11) Absolute function(Fake)                              0     0      0       0
 ---------------------------------------------------------------------------------
 Estimated maximum stack depth 11
 ---------------------------------------------------------------------------------
 (Depth) Function   	        Calls       Base Space   Used Autos Params    Refs
 ---------------------------------------------------------------------------------
 (9) _TMR0_ISR                                             3     3      0      90
                                              2 COMRAM     3     3      0
                   Absolute function *
       _TMR0_DefaultInterruptHandler *
 ---------------------------------------------------------------------------------
 (10) _TMR0_DefaultInterruptHandler                        0     0      0       0
 ---------------------------------------------------------------------------------
 (11) Absolute function(Fake)                              0     0      0       0
 ---------------------------------------------------------------------------------
 Estimated maximum stack depth 11
 ---------------------------------------------------------------------------------
 (Depth) Function   	        Calls       Base Space   Used Autos Params    Refs
 ---------------------------------------------------------------------------------
 (9) _UART2_tx_vect_isr                                    0     0      0       0
                   Absolute function *
                 _UART2_Transmit_ISR *
 ---------------------------------------------------------------------------------
 (10) _UART2_Transmit_ISR                                  0     0      0       0
 ---------------------------------------------------------------------------------
 (11) Absolute function(Fake)                              0     0      0       0
 ---------------------------------------------------------------------------------
 Estimated maximum stack depth 11
 ---------------------------------------------------------------------------------
 (Depth) Function   	        Calls       Base Space   Used Autos Params    Refs
 ---------------------------------------------------------------------------------
 (9) _UART2_rx_vect_isr                                    0     0      0       0
                   Absolute function *
                  _UART2_Receive_ISR *
 ---------------------------------------------------------------------------------
 (10) _UART2_Receive_ISR                                   0     0      0       0
                   Absolute function *
          _UART2_DefaultErrorHandler *
   _UART2_DefaultFramingErrorHandler *
   _UART2_DefaultOverrunErrorHandler *
                _UART2_RxDataHandler
 ---------------------------------------------------------------------------------
 (11) _UART2_DefaultOverrunErrorHandler                    0     0      0       0
 ---------------------------------------------------------------------------------
 (11) _UART2_DefaultFramingErrorHandler                    0     0      0       0
 ---------------------------------------------------------------------------------
 (11) _UART2_DefaultErrorHandler                           0     0      0       0
                _UART2_RxDataHandler
 ---------------------------------------------------------------------------------
 (11) _UART2_RxDataHandler                                 0     0      0       0
 ---------------------------------------------------------------------------------
 (11) Absolute function(Fake)                              0     0      0       0
 ---------------------------------------------------------------------------------
 Estimated maximum stack depth 11
 ---------------------------------------------------------------------------------
 (Depth) Function   	        Calls       Base Space   Used Autos Params    Refs
 ---------------------------------------------------------------------------------
 (9) _UART1_tx_vect_isr                                    0     0      0       0
                   Absolute function *
                 _UART1_Transmit_ISR *
 ---------------------------------------------------------------------------------
 (10) _UART1_Transmit_ISR                                  0     0      0       0
 ---------------------------------------------------------------------------------
 (11) Absolute function(Fake)                              0     0      0       0
 ---------------------------------------------------------------------------------
 Estimated maximum stack depth 11
 ---------------------------------------------------------------------------------
 (Depth) Function   	        Calls       Base Space   Used Autos Params    Refs
 ---------------------------------------------------------------------------------
 (9) _UART1_rx_vect_isr                                    0     0      0       0
                   Absolute function *
                  _UART1_Receive_ISR *
 ---------------------------------------------------------------------------------
 (10) _UART1_Receive_ISR                                   0     0      0       0
                   Absolute function *
          _UART1_DefaultErrorHandler *
   _UART1_DefaultFramingErrorHandler *
   _UART1_DefaultOverrunErrorHandler *
                _UART1_RxDataHandler
 ---------------------------------------------------------------------------------
 (11) _UART1_DefaultOverrunErrorHandler                    0     0      0       0
 ---------------------------------------------------------------------------------
 (11) _UART1_DefaultFramingErrorHandler                    0     0      0       0
 ---------------------------------------------------------------------------------
 (11) _UART1_DefaultErrorHandler                           0     0      0       0
                _UART1_RxDataHandler
 ---------------------------------------------------------------------------------
 (11) _UART1_RxDataHandler                                 0     0      0       0
 ---------------------------------------------------------------------------------
 (11) Absolute function(Fake)                              0     0      0       0
 ---------------------------------------------------------------------------------
 Estimated maximum stack depth 11
 ---------------------------------------------------------------------------------

 Call Graph Graphs:

 _main (ROOT)
   _SYSTEM_Initialize
     _ADCC_Initialize
     _INTERRUPT_Initialize
     _OSCILLATOR_Initialize
     _PIN_MANAGER_Initialize
     _PMD_Initialize
     _TMR0_Initialize
       _TMR0_SetInterruptHandler
     _TMR5_Initialize
       _TMR5_SetInterruptHandler
     _UART1_Initialize
       _UART1_SetErrorHandler
       _UART1_SetFramingErrorHandler
       _UART1_SetOverrunErrorHandler
       _UART1_SetRxInterruptHandler
       _UART1_SetTxInterruptHandler
     _UART2_Initialize
       _UART2_SetErrorHandler
       _UART2_SetFramingErrorHandler
       _UART2_SetOverrunErrorHandler
       _UART2_SetRxInterruptHandler
       _UART2_SetTxInterruptHandler
   _StartTimer
   _TMR0_StartTimer
   _TimerDone
   _WaitMs
     _StartTimer
     _TimerDone
   _controller_work
     _ADCC_GetConversionResult
     _ADCC_IsConversionDone
     _ADCC_StartConversion
   _sprintf
     _vfprintf
       _vfpfcnvrt
         _fputc
           _putch
         _strncmp
         _utoa
           ___lodiv
           ___lomod
           _pad
             _fputc
               _putch
             _fputs
               _fputc
                 _putch
             _strlen

 _Default_ISR (ROOT)

 _TMR5_ISR (ROOT)
   Absolute function(Fake) *
   _TMR5_DefaultInterruptHandler *
   _TMR5_WriteTimer *

 _TMR0_ISR (ROOT)
   Absolute function(Fake) *
   _TMR0_DefaultInterruptHandler *

 _UART2_tx_vect_isr (ROOT)
   Absolute function(Fake) *
   _UART2_Transmit_ISR *

 _UART2_rx_vect_isr (ROOT)
   Absolute function(Fake) *
   _UART2_Receive_ISR *
     Absolute function(Fake) *
     _UART2_DefaultErrorHandler *
       _UART2_RxDataHandler
     _UART2_DefaultFramingErrorHandler *
     _UART2_DefaultOverrunErrorHandler *
     _UART2_RxDataHandler *

 _UART1_tx_vect_isr (ROOT)
   Absolute function(Fake) *
   _UART1_Transmit_ISR *

 _UART1_rx_vect_isr (ROOT)
   Absolute function(Fake) *
   _UART1_Receive_ISR *
     Absolute function(Fake) *
     _UART1_DefaultErrorHandler *
       _UART1_RxDataHandler
     _UART1_DefaultFramingErrorHandler *
     _UART1_DefaultOverrunErrorHandler *
     _UART1_RxDataHandler *

 Address spaces:
Name               Size   Autos  Total    Cost      Usage
BIGRAM            1FFF      0       0      69        0.0%
EEDATA             400      0       0       0        0.0%
BITBANK31          100      0       0      67        0.0%
BANK31             100      0       0      68        0.0%
BITBANK30          100      0       0      65        0.0%
BANK30             100      0       0      66        0.0%
BITBANK29          100      0       0      63        0.0%
BANK29             100      0       0      64        0.0%
BITBANK28          100      0       0      61        0.0%
BANK28             100      0       0      62        0.0%
BITBANK27          100      0       0      59        0.0%
BANK27             100      0       0      60        0.0%
BITBANK26          100      0       0      56        0.0%
BANK26             100      0       0      57        0.0%
BITBANK25          100      0       0      54        0.0%
BANK25             100      0       0      55        0.0%
BITBANK24          100      0       0      52        0.0%
BANK24             100      0       0      53        0.0%
BITBANK23          100      0       0      50        0.0%
BANK23             100      0       0      51        0.0%
BITBANK22          100      0       0      48        0.0%
BANK22             100      0       0      49        0.0%
BITBANK21          100      0       0      46        0.0%
BANK21             100      0       0      47        0.0%
BITBANK20          100      0       0      44        0.0%
BANK20             100      0       0      45        0.0%
BITBANK19          100      0       0      42        0.0%
BANK19             100      0       0      43        0.0%
BITBANK18          100      0       0      40        0.0%
BANK18             100      0       0      41        0.0%
BITBANK17          100      0       0      38        0.0%
BANK17             100      0       0      39        0.0%
BITBANK16          100      0       0      36        0.0%
BANK16             100      0       0      37        0.0%
BITBANK15          100      0       0      34        0.0%
BANK15             100      0       0      35        0.0%
BITBANK14          100      0       0      32        0.0%
BANK14             100      0       0      33        0.0%
BITBANK13          100      0       0      30        0.0%
BANK13             100      0       0      31        0.0%
BITBANK12          100      0       0      28        0.0%
BANK12             100      0       0      29        0.0%
BITBANK11          100      0       0      26        0.0%
BANK11             100      0       0      27        0.0%
BITBANK10          100      0       0      24        0.0%
BANK10             100      0       0      25        0.0%
BITBANK9           100      0       0      22        0.0%
BANK9              100      0       0      23        0.0%
BITBANK8           100      0       0      20        0.0%
BANK8              100      0       0      21        0.0%
BITBANK7           100      0       0      18        0.0%
BANK7              100      0       0      19        0.0%
BITBANK6           100      0       0      16        0.0%
BANK6              100      0       0      17        0.0%
BITBANK5           100      0       0      14        0.0%
BANK5              100      0       0      15        0.0%
BITBANK4           100      0       0      12        0.0%
BANK4              100      0       0      13        0.0%
BITBANK3           100      0       0      10        0.0%
BANK3              100     52      52      11       32.0%
BITBANK2           100      0       0       8        0.0%
BANK2              100      0      C0       9       75.0%
BITBANK1           100      0       0       6        0.0%
BANK1              100      0      F6       7       96.1%
BITBANK0            A0      0       0       4        0.0%
BANK0               A0     18      56       5       53.8%
BITCOMRAM           5F      0       0       0        0.0%
COMRAM              5F     51      57       1       91.6%
BITSFR_8             0      0       0     200        0.0%
SFR_8                0      0       0     200        0.0%
BITSFR_7             0      0       0     200        0.0%
SFR_7                0      0       0     200        0.0%
BITSFR_6             0      0       0     200        0.0%
SFR_6                0      0       0     200        0.0%
BITSFR_5             0      0       0     200        0.0%
SFR_5                0      0       0     200        0.0%
BITSFR_4             0      0       0     200        0.0%
SFR_4                0      0       0     200        0.0%
BITSFR_3             0      0       0     200        0.0%
SFR_3                0      0       0     200        0.0%
BITSFR_2             0      0       0     200        0.0%
SFR_2                0      0       0     200        0.0%
BITSFR_1             0      0       0     200        0.0%
SFR_1                0      0       0     200        0.0%
BITSFR               0      0       0     200        0.0%
SFR                  0      0       0     200        0.0%
STACK                0      0       0       2        0.0%
NULL                 0      0       0       0        0.0%
ABS                  0      0     2B5      58        0.0%
DATA                 0      0     2B5       3        0.0%
CODE                 0      0       0       0        0.0%


Microchip Technology PIC18 Macro Assembler V2.20 build 20200408173844 
Symbol Table                                                                                   Mon Aug 17 11:00:57 2020

            __end_of_TMR5_SetInterruptHandler 326A                                 _build_version 2001  
                           ??_TMR5_WriteTimer 0003                                           l259 3198  
                                         l930 2614                                           l953 2FE8  
                                         l892 2412                                           l897 2430  
                                         _GIE 01FE97                                           _pad 2B8C  
                     __size_of_PMD_Initialize 0022                                           prod 003FF3  
                                         tosl 003FFD                                           wreg 003FE8  
                          _UART1_Transmit_ISR 2F4C                                          l3102 24C4  
                                        l1406 2842                                          l3200 2666  
                                        l3104 24D8                                          l3114 2534  
                                        l3130 282C                                          l3122 27D0  
                                        l3124 27E4                                          l3070 2B06  
                                        l3142 2BB0                                          l3080 2EBE  
                                        l3152 2C00                                          l3144 2BC2  
                                        l3090 2F8A                                          l3138 2BA2  
                                        l3500 2572                                          l1396 254A  
                                        l3084 2ED0                                          l3148 2BD6  
                                        l3262 2168                                          l3254 20FC  
                                        l1663 2BB8                                          l3512 25BC  
                                        l3088 2F86                                          l3168 2244  
                                        l3272 21A8                                          l1673 2204  
                                        l3514 25C2                                          l3506 25AA  
                                        l3178 2330                                          l1675 220C  
                                        l3268 219E                                          l3470 313E  
                                        l3526 2622                                          l3198 265C  
                                        l3278 21BA                          _ADCC_StartConversion 31B2  
                                        l3480 2DD0                                          l3478 2DB6  
                                        ?_pad 0014                                          l3496 2FF0  
                                        l3568 23DA                                          STR_1 2021  
                                        STR_2 202D                                          STR_3 2006  
                                        STR_4 2036                                          STR_6 2036  
                                        u2000 31CC                                          u2110 25F0  
                                        u2025 2E26                                          u2026 2E28  
                                        _LATA 003FBA                                          _LATB 003FBB  
                                        _LATC 003FBC                                          u2080 25A0  
                                        _LATD 003FBD                                          _LATE 003FBE  
                                        u1700 2B40                                          u1731 24A4  
                                        u1900 236E                                          u1750 24DC  
                                        u1680 2AFE                                          u1850 21FA  
                                        u1780 27E8                                          u1950 26CC  
                                        u1880 235A                                          u1881 2358  
                                        u1890 2368                                          _PMD0 0039C0  
                                        _PMD1 0039C1                                          _PMD2 0039C2  
                                        _PMD3 0039C3                                          _PMD4 0039C4  
                                        _PMD5 0039C5                                          _PMD6 0039C6  
                                        _PMD7 0039C7                                          _PLLR 01CEE0  
                                        _WPUA 003A41                                          _WPUB 003A51  
                                        _WPUC 003A61                                          _WPUD 003A71  
                                        _WPUE 003A81                           ?_UART1_Transmit_ISR 0001  
                                        _dbuf 01D6                                          _main 2394  
                                        _flow 01D2                                          _prec 0088  
                             _TMR0_StartTimer 3288                                          _temp 01CE  
                                        _nout 0084                                          pad@i 001A  
                                        pad@p 0017                                          fsr1h 003FE2  
                                        fsr2h 003FDA                                          indf2 003FDF  
                                        fsr1l 003FE1                                          pad@w 001C  
                                        fsr2l 003FD9                                          _utoa 21E8  
                                        prodl 003FF3                                          start 00AE  
                             _timer5ReloadVal 008C                      __size_of_controller_work 00CE  
               ??_UART1_SetTxInterruptHandler 0009                 ??_UART2_SetRxInterruptHandler 0009  
                           _UART1_rx_vect_isr 30D8                                  ___param_bank 000000  
                          ?_UART1_rx_vect_isr 0001                                         ??_pad 0019  
                     __end_of_TMR0_Initialize 2EB4                ??_TMR0_DefaultInterruptHandler 0003  
              __size_of_OSCILLATOR_Initialize 001C                          ??_UART1_Transmit_ISR 0006  
               __end_of_OSCILLATOR_Initialize 319E                                         _ADCAP 003EF5  
                                       _ADACT 003EFE                                         ?_main 0001  
                                       _ADCLK 003EFF                                         _ADPCH 003EF1  
                                       _ADREF 003EFD                                         _ADRPT 003EEC  
                                       ?_utoa 001F                               __end_of___lodiv 256C  
                                       _U1P1H 003DED                                         _U1P2H 003DEF  
                                       _U1P1L 003DEC                                         _U1P3H 003DF1  
                                       _U1P2L 003DEE                                         _U1P3L 003DF0  
                                       _U2P1L 003DD4                                         _U2P2L 003DD6  
                                       _U2P3L 003DD8                                         _T5CLK 003F9D  
                             __end_of___lomod 2864                                         _T5CON 003F9A  
                                       _U1UIR 003DF8                                         _U1RXB 003DE8  
                                       _U2UIR 003DE0                                         _U2RXB 003DD0  
                                       _U1TXB 003DEA                                         _U2TXB 003DD2  
                                       i2l404 303A                                         i2l616 2F46  
                         ??_UART1_rx_vect_isr 0006                                         i2l790 2F76  
                                       _OSCEN 0039DD                                  vfpfcnvrt@fmt 003F  
                                       _TMR0H 003FB7                                  vfpfcnvrt@llu 0046  
                                       _TMR0L 003FB6                                         _TMR5H 003F99  
                                       _TMR5L 003F98                                         _TRISA 003FC2  
                                       _TRISB 003FC3                                         _TRISC 003FC4  
                                       _TRISD 003FC5                                         _TRISE 003FC6  
                                 _Default_ISR 3290             __size_of_TMR0_SetInterruptHandler 000E  
                   ?_TMR0_SetInterruptHandler 0006                       ??_ADCC_IsConversionDone 0006  
                            __end_of_TMR0_ISR 2C9C                             _UART1_tx_vect_isr 30B4  
                            __end_of_TMR5_ISR 2F1C                                         _flags 008A  
                                       _count 01CA                         ?_ADCC_StartConversion 0001  
                                       _fputc 2AF2                                         _fputs 2EB4  
                          ?_UART1_tx_vect_isr 0001                                         pad@fp 0014  
                                       _width 0086                                         _putch 328C  
                                       pclath 003FFA                                         tablat 003FF5  
                                       utoa@d 0020                                         utoa@i 003C  
                                       utoa@n 0034                                         utoa@p 0030  
                                       utoa@w 0032                                         status 003FD8  
         __end_of_UART1_SetRxInterruptHandler 3232                   _UART1_SetRxInterruptHandler 3224  
                             __end_of_sprintf 2E76                               __end_of_strncmp 2700  
                            ___lodiv@dividend 0006      __end_of_UART1_DefaultFramingErrorHandler 329C  
   __size_of_UART1_DefaultFramingErrorHandler 0002            ??_UART1_DefaultFramingErrorHandler 0006  
           ?_UART1_DefaultFramingErrorHandler 0001              _UART1_DefaultFramingErrorHandler 329A  
                         ??_UART1_tx_vect_isr 0006                     __end_of_UART1_rx_vect_isr 30FC  
                             _TMR5_Initialize 2D5C                ??_UART2_SetOverrunErrorHandler 0009  
                             __initialization 2C9C                             _UART2_rx_vect_isr 306C  
                                __end_of_main 249E                                  __end_of_utoa 2394  
                 ??_UART1_DefaultErrorHandler 0006                            ?_UART2_rx_vect_isr 0001  
                                      ??_main 0052                      _TMR5_SetInterruptHandler 325C  
                                      ??_utoa 0028                                 __activetblptr 000003  
        __size_of_UART1_SetTxInterruptHandler 000E                           ??_UART2_rx_vect_isr 0006  
                   __end_of_UART1_tx_vect_isr 30D8          __size_of_UART2_SetRxInterruptHandler 000E  
                            ___lodiv@quotient 0016                   __end_of_UART2_RxDataHandler 30B4  
                            _UART1_Initialize 2700                             _UART2_tx_vect_isr 3048  
                          _UART2_Transmit_ISR 2F1C                       __end_of_TMR0_StartTimer 328C  
                                      _ADACCU 003EEA                                        _ADACQH 003EF4  
                                      _ADACQL 003EF3                                        _ADCON0 003EF8  
                                      _ADCON1 003EF9                                        _ADCON2 003EFA  
                                      _ADCON3 003EFB                                        ?_fputc 0006  
                                      _ADLTHH 003EDF                                        _ADLTHL 003EDE  
                                      ?_fputs 000E                                        _ADRESH 003EF0  
                                      _ADRESL 003EEF                                        _ADPREH 003EF7  
                                      _ADPREL 003EF6                                        _ADSTAT 003EFC  
                                      _ADUTHH 003EE1                                        _ADUTHL 003EE0  
                                      _ANSELA 003A40                                        ?_putch 0001  
                                      _ANSELB 003A50                                        _ANSELC 003A60  
                                      _ANSELD 003A70                                        _ANSELE 003A80  
                          ?_UART2_tx_vect_isr 0001                                        _T0CON0 003FB8  
                              TimerDone@timer 0008                                        _T0CON1 003FB9  
                                      _RB1I2C 003A5A                                        _RB2I2C 003A5B  
                                      _RD0I2C 003A7A                                        _U1CON0 003DF2  
                                      _U1CON1 003DF3                                        _U1CON2 003DF4  
                                      _RC3I2C 003A6A                                        _RD1I2C 003A7B  
                                      _RC4I2C 003A6B                                        _U1BRGH 003DF6  
                                      _U1FIFO 003DF7                                        _U2CON0 003DDA  
                                      _U2CON1 003DDB                                        _U2CON2 003DDC  
                                      _U1BRGL 003DF5                                        _U2BRGH 003DDE  
                                      _U2FIFO 003DDF                                        _U2BRGL 003DDD  
                                      _T5GATE 003F9C                                        _T5GCON 003F9B  
                                      _ODCONA 003A42                                        _ODCONB 003A52  
                                      _ODCONC 003A62                                        _ODCOND 003A72  
                                      _ODCONE 003A82                                        i2l3000 2C82  
                                      i2l2902 2F70                                        i2l2568 30AE  
                                      i2l2922 2A4C                                        i2l2588 311A  
                                      i2l2870 2F40                                        _INLVLA 003A44  
                                      i2l2890 29AA                                        _INLVLB 003A54  
                                      _INLVLC 003A64                                        _INLVLD 003A74  
                                      _INLVLE 003A84                                        i2l2996 2C54  
                                      _OSCFRQ 0039DF                           ?_UART2_Transmit_ISR 0001  
                       _UART1_SetErrorHandler 324E                    ??_ADCC_GetConversionResult 0008  
                         ??_UART2_tx_vect_isr 0006                     __end_of_UART2_rx_vect_isr 3090  
                            _UART2_Initialize 2864                                        _WaitMs 2FD8  
                   _UART2_OverrunErrorHandler 006C                                  vfprintf@cfmt 0051  
                         _uart2RxStatusBuffer 0140            __size_of_UART2_DefaultErrorHandler 0006  
                  ?_UART2_DefaultErrorHandler 0001                                     ??___lodiv 0016  
                                   ??___lomod 0016                              ?_TMR0_Initialize 0001  
                           ??_controller_work 000C                                        clear_0 2CC4  
                                      clear_1 2CD0                                        clear_2 2CDC  
                        ??_UART2_Transmit_ISR 0006                                        pad@buf 0015  
                                      _strlen 2F7C                            __size_of_TimerDone 0022  
                             _ADCC_Initialize 2D00                                        fputc@c 0006  
                              _PMD_Initialize 3142                                        fputs@c 0011  
                                      fputs@i 0012                                        fputs@s 000E  
                   __end_of_UART2_tx_vect_isr 306C                                  __mediumconst 0000  
                                      tblptrh 003FF7                                        tblptrl 003FF6  
                                      tblptru 003FF8                        ??_ADCC_StartConversion 0006  
                                      putch@c 0001                                 _max_heat_time 008E  
                               main@pwm_value 0350                              __end_of_vfprintf 2DF2  
                                      utoa@fp 001F                                    _StartTimer 2FAA  
 UART1_SetTxInterruptHandler@InterruptHandler 0006   UART1_SetRxInterruptHandler@InterruptHandler 0006  
 UART2_SetTxInterruptHandler@InterruptHandler 0006   UART2_SetRxInterruptHandler@InterruptHandler 0006  
    TMR0_SetInterruptHandler@InterruptHandler 0006      TMR5_SetInterruptHandler@InterruptHandler 0006  
        __end_of_UART1_SetOverrunErrorHandler 3240         __size_of_UART1_SetOverrunErrorHandler 000E  
                _UART1_SetOverrunErrorHandler 3232                     _UART1_DefaultErrorHandler 327E  
                                   ??_sprintf 0052                                     ??_strncmp 000A  
               __size_of_INTERRUPT_Initialize 0046                  __size_of_UART1_RxDataHandler 0024  
                     __end_of_TMR5_Initialize 2DA8                             _SYSTEM_Initialize 2FFE  
                                  __accesstop 0060                       __end_of__initialization 2CFA  
                          ?_SYSTEM_Initialize 0001                                 ___rparam_used 000001  
                  __size_of_UART1_rx_vect_isr 0024                               _TMR5_WriteTimer 3024  
                              __pcstackCOMRAM 0001                         _UART2_SetErrorHandler 3208  
                                __pidataBANK0 3284                           ??_SYSTEM_Initialize 000B  
                                   ?_TMR0_ISR 0001                                     ?_TMR5_ISR 0001  
                              ivt0x8_undefint 00AC                                 __end_of_fputc 2B8C  
                               __end_of_fputs 2EE8             __end_of_UART2_DefaultErrorHandler 327E  
                               __end_of_putch 328E                        __end_of_PMD_Initialize 3164  
                  __size_of_UART1_tx_vect_isr 0024                     _UART1_FramingErrorHandler 0066  
                 ADCC_StartConversion@channel 0006                      _UART2_RxInterruptHandler 0081  
                            ?_TMR0_StartTimer 0001                                       ??_fputc 0009  
                   __end_of_SYSTEM_Initialize 3024                                       ??_fputs 0011  
                                     ??_putch 0006                                    __pbssBANK0 0060  
                                  __pbssBANK1 0100                                    __pbssBANK2 0200  
               ?_UART1_SetOverrunErrorHandler 0006                        ?_UART1_SetErrorHandler 0006  
                           __end_of_TimerDone 3142                  ?_UART2_SetTxInterruptHandler 0006  
                  __size_of_UART2_rx_vect_isr 0024                                       IVTBASEH 003FD6  
                                     IVTBASEL 003FD5                                       IVTBASEU 003FD7  
                                     ?_WaitMs 000B              __end_of_TMR0_SetInterruptHandler 3278  
                                  ??_TMR0_ISR 0003          __end_of_UART2_SetFramingErrorHandler 3208  
       __size_of_UART2_SetFramingErrorHandler 000E                  _UART2_SetFramingErrorHandler 31FA  
                     __end_of_ADCC_Initialize 2D5C                                    ??_TMR5_ISR 0003  
                      controller_work@pwm_val 00B2                                       _ADSTPTH 003EE5  
                                     _ADSTPTL 003EE4                               ?_PMD_Initialize 0001  
                           _UART1_Receive_ISR 29B0                                     TMR0_ISR@i 0005  
                                     ?_strlen 0006                               StartTimer@count 0006  
                                     _U1ERRIE 003DFA                                       _U1ERRIR 003DF9  
                                     _U2ERRIE 003DE2                                       _U2ERRIR 003DE1  
                             StartTimer@timer 000A                                  ?_Default_ISR 0001  
                          ?_UART1_Receive_ISR 0001                    __size_of_UART2_tx_vect_isr 0024  
                                     _U1RXPPS 003AE5                                       _U2RXPPS 003AE8  
                                     _OSCCON1 0039D9                                       _OSCCON3 0039DB  
                                     _IVTLOCK 003FD4                            __size_of_vfpfcnvrt 01AE  
                                     _OSCTUNE 0039DE                                       _SLRCONA 003A43  
                                     _SLRCONB 003A53                                       _SLRCONC 003A63  
                                     _SLRCOND 003A73                                       _SLRCONE 003A83  
              __size_of_ADCC_IsConversionDone 000E                                   ?_StartTimer 0006  
               __end_of_ADCC_IsConversionDone 31D0                                    _build_date 00B5  
                         ??_UART1_Receive_ISR 0006                                    _build_time 00B4  
                            ___lomod@dividend 0006                       __end_of_TMR5_WriteTimer 3048  
                            ?_TMR5_Initialize 0001                     INTERRUPT_Initialize@state 0006  
                                     __Hparam 0000                        ?_UART2_SetErrorHandler 0006  
                                     __Lparam 0000                      __end_of_UART1_Initialize 27B6  
               ??_UART2_SetTxInterruptHandler 0009                    ??_TMR5_SetInterruptHandler 0009  
                             __size_of_WaitMs 0026                                       ___lodiv 249E  
                                     ___lomod 27B6                     __end_of_UART1_Receive_ISR 2A52  
                                   ?_vfprintf 004E                                  __psmallconst 2000  
               ?_UART2_SetFramingErrorHandler 0006                                       __pcinit 2C9C  
                                     __ramtop 2000                   __size_of_UART1_Transmit_ISR 0030  
                                     __ptext0 2394                                       __ptext1 2E38  
                                     __ptext2 2DA8                                       __ptext3 203A  
                                     __ptext4 21E8                                       __ptext5 2B8C  
                                     __ptext6 2F7C                                       __ptext7 2EB4  
                                     __ptext8 2AF2                                       __ptext9 328C  
                           _UART2_Receive_ISR 290E                               __size_of_strlen 002E  
    __end_of_UART2_DefaultOverrunErrorHandler 3296     __size_of_UART2_DefaultOverrunErrorHandler 0002  
          ??_UART2_DefaultOverrunErrorHandler 0006             ?_UART2_DefaultOverrunErrorHandler 0001  
            _UART2_DefaultOverrunErrorHandler 3294                         _OSCILLATOR_Initialize 3182  
                                __size_of_pad 008E                            ?_UART2_Receive_ISR 0001  
                    ??_PIN_MANAGER_Initialize 0006                                     _T5CONbits 003F9A  
                    __end_of_UART2_Initialize 290E                    __size_of_SYSTEM_Initialize 0026  
                                     _sprintf 2E38                                       _strncmp 263A  
                        end_of_initialization 2CFA                           ??_UART2_Receive_ISR 0006  
                                     fputc@fp 0008           __end_of_UART1_SetTxInterruptHandler 3224  
                 _UART1_SetTxInterruptHandler 3216                                       fputs@fp 0010  
         __end_of_UART2_SetRxInterruptHandler 31EC                   _UART2_SetRxInterruptHandler 31DE  
                             _controller_work 256C                ??_UART1_SetOverrunErrorHandler 0009  
                           __end_of_vfpfcnvrt 21E8                                       postdec1 003FE5  
                                     postdec2 003FDD                                       postinc0 003FEE  
                                     postinc1 003FE6                                       postinc2 003FDE  
                            ?_ADCC_Initialize 0001                   ??_UART2_DefaultErrorHandler 0006  
                         __size_of_StartTimer 002E                                    ??_vfprintf 0051  
                   __end_of_UART2_Receive_ISR 29B0                           _UART1_RxDataHandler 30FC  
                                     strlen@a 0008                                       strlen@s 0006  
                    _TMR0_SetInterruptHandler 326A                                     _PORTAbits 003FCA  
                       _TMR5_InterruptHandler 0075          __size_of_UART2_SetTxInterruptHandler 000E  
                       WaitMs@numMilliseconds 000B                          ?_UART1_RxDataHandler 0001  
                            ?_TMR5_WriteTimer 0001                       TMR5_WriteTimer@timerVal 0001  
                __size_of_UART2_RxDataHandler 0024                                    main@buffer 0300  
                        _timer0ReloadVal16bit 0052                                __end_of_WaitMs 2FFE  
                __end_of_INTERRUPT_Initialize 2E38                    __size_of_UART1_Receive_ISR 00A2  
                       __end_of_build_version 2006                                   vfpfcnvrt@ap 0040  
                                 vfpfcnvrt@fp 003E                             __size_of_TMR0_ISR 0080  
                           __size_of_TMR5_ISR 0034                   __size_of_UART2_Transmit_ISR 0030  
                      ?_OSCILLATOR_Initialize 0001             __size_of_ADCC_GetConversionResult 0014  
                   ?_ADCC_GetConversionResult 0006                                __end_of_strlen 2FAA  
              ??_UART2_SetFramingErrorHandler 0009                           start_initialization 2C9C  
                             ___lodiv@divisor 000E                               ___lodiv@counter 001E  
        __end_of_TMR5_DefaultInterruptHandler 3182         __size_of_TMR5_DefaultInterruptHandler 001E  
                _TMR5_DefaultInterruptHandler 3164                      __size_of_TMR0_Initialize 003E  
             __size_of_PIN_MANAGER_Initialize 00A0                                   __end_of_pad 2C1A  
                        __size_of_Default_ISR 0002                       ??_UART1_SetErrorHandler 0009  
                   _UART2_DefaultErrorHandler 3278                       __end_of_controller_work 263A  
                       ??_UART1_RxDataHandler 0006                 __size_of_ADCC_StartConversion 0010  
                                  ivt0x8_base 0008                                 _uart1RxBuffer 0200  
                               _uart2RxBuffer 0280                                 _uart1TxBuffer 0240  
                               _uart2TxBuffer 0180                                      ??_WaitMs 000D  
                                 vfprintf@fmt 004F                              ??_PMD_Initialize 0006  
                                   _TimerDone 3120                                   __pdataBANK0 00B2  
                  __size_of_UART2_Receive_ISR 00A2                                      ??_strlen 0008  
                                 __pbssCOMRAM 0052                            _UART1_ErrorHandler 0060  
                   _UART2_FramingErrorHandler 006F                                 __pcstackBANK0 009A  
                               __pcstackBANK3 0300                                  ??_StartTimer 0008  
                    _UART1_RxInterruptHandler 007B                      _UART2_TxInterruptHandler 007E  
               ?_TMR5_DefaultInterruptHandler 0001                       ??_UART2_SetErrorHandler 0009  
                ?_UART1_SetRxInterruptHandler 0006                         _TMR0_InterruptHandler 0072  
                    __size_of_TMR0_StartTimer 0004                        _PIN_MANAGER_Initialize 2A52  
                           ?_UART1_Initialize 0001          __end_of_UART1_SetFramingErrorHandler 324E  
       __size_of_UART1_SetFramingErrorHandler 000E                  _UART1_SetFramingErrorHandler 3240  
                                  ?_TimerDone 0001                                      ?___lodiv 0006  
                                    ?___lomod 0006                            ??_UART1_Initialize 0009  
                          __end_of_StartTimer 2FD8                              _uart1RxLastError 0090  
                           __size_of_vfprintf 004A                               ___lomod@divisor 000E  
                                 __smallconst 2000                               ___lomod@counter 0016  
    __end_of_UART1_DefaultOverrunErrorHandler 329A     __size_of_UART1_DefaultOverrunErrorHandler 0002  
          ??_UART1_DefaultOverrunErrorHandler 0006             ?_UART1_DefaultOverrunErrorHandler 0001  
            _UART1_DefaultOverrunErrorHandler 3298                             ?_UART2_Initialize 0001  
                                    ?_sprintf 009A                                __size_of_fputc 009A  
                              __size_of_fputs 0034                                      ?_strncmp 0006  
                            ?_controller_work 000A                                   _U1ERRIRbits 003DF9  
                          ??_UART2_Initialize 0009                                __size_of_putch 0002  
                        _INTERRUPT_Initialize 2DF2                              _uart2RxLastError 0095  
                       _ADCC_IsConversionDone 31C2                             ??_TMR0_Initialize 0009  
                                 _U2ERRIRbits 003DE1                                      _LATAbits 003FBA  
       UART1_SetErrorHandler@interruptHandler 0006         UART2_SetErrorHandler@interruptHandler 0006  
                                    _LATDbits 003FBD                                      _LATEbits 003FBE  
                                    _IPR3bits 003983                                      _PIE3bits 003993  
                                   _tickCount 01C0                                      _IPR6bits 003986  
                                    _IPR8bits 003988                                      _PIE6bits 003996  
                                    _PIE8bits 003998                                      _IVTBASEH 003FD6  
                                    _IVTBASEL 003FD5                                      _IVTBASEU 003FD7  
               ??_UART1_SetRxInterruptHandler 0009                                      i2u130_48 2938  
                                    i2u130_49 294E                                      i2u140_48 2A0A  
                                    i2u132_48 2968                                      i2u140_49 2A20  
                                    i2u132_49 297E                                      i2u126_40 316C  
                                    i2u126_46 316E                                      i2u142_48 2A36  
                                    i2u134_48 2994                                      i2u151_48 2F08  
                                    i2u161_48 30C4                                      i2u153_48 2C3C  
                                    i2u153_49 2C50                                      i2u138_48 29DA  
                                    i2u138_49 29F0                                      i2u163_48 30E8  
                  ??_TMR0_SetInterruptHandler 0009                                      i2u157_48 3058  
                                    i2u159_48 307C                                      _PIR3bits 0039A3  
                                    _PIR8bits 0039A8                      __size_of_TMR5_Initialize 004C  
                                    _TMR0_ISR 2C1C                    __end_of_UART1_Transmit_ISR 2F7C  
                                    _TMR5_ISR 2EE8                 ?_UART1_SetFramingErrorHandler 0006  
                                   _vfpfcnvrt 203A                           _UART2_RxDataHandler 3090  
                                  _ADCON0bits 003EF8             __size_of_TMR5_SetInterruptHandler 000E  
                   ?_TMR5_SetInterruptHandler 0006                            _UART2_ErrorHandler 0069  
                                 _INTCON0bits 003FD2                                     copy_data0 2CB0  
                       ?_INTERRUPT_Initialize 0001                          ?_UART2_RxDataHandler 0001  
                      _uart1TxBufferRemaining 0093                ??_TMR5_DefaultInterruptHandler 0001  
         __end_of_UART2_SetTxInterruptHandler 31DE                   _UART2_SetTxInterruptHandler 31D0  
                                _uart1RxCount 0091                                  _uart2RxCount 0096  
                                    __Hrparam 0000              __end_of_ADCC_GetConversionResult 31B2  
                                  vfprintf@ap 0050                                      __Lrparam 0000  
                                  vfprintf@fp 004E                                   ??_TimerDone 0006  
                     ??_OSCILLATOR_Initialize 0006                             ??_TMR0_StartTimer 0006  
                            __size_of___lodiv 00CE                              __size_of___lomod 00AE  
                                  ?_vfpfcnvrt 003E          __size_of_UART1_SetRxInterruptHandler 000E  
                                  sprintf@fmt 009C                                    _T0CON0bits 003FB8  
                    __size_of_ADCC_Initialize 005C                                      __pivt0x8 0008  
                                    __ptext10 27B6                                      __ptext11 249E  
                                    __ptext20 3288                                      __ptext12 263A  
                                    __ptext21 2FFE                                      __ptext13 256C  
                                    __ptext30 3224                                      __ptext22 2864  
                                    __ptext14 31B2                                      __ptext31 3232  
                                    __ptext23 31D0                                      __ptext15 31C2  
                                    __ptext40 3182                                      __ptext32 3240  
                                    __ptext24 31DE                                      __ptext16 319E  
                                    __ptext41 2DF2                                      __ptext33 324E  
                                    __ptext25 31EC                                      __ptext17 2FD8  
                                    __ptext50 2F1C                                      __ptext42 2D00  
                                    __ptext34 2D5C                                      __ptext26 31FA  
                                    __ptext18 3120                                      __ptext51 306C  
                                    __ptext43 3290                                      __ptext35 325C  
                                    __ptext27 3208                                      __ptext19 2FAA  
                                    __ptext60 29B0                                      __ptext52 290E  
                                    __ptext44 2EE8                                      __ptext36 2E76  
                                    __ptext28 2700                                      __ptext61 3298  
                                    __ptext53 3294                                      __ptext45 3024  
                                    __ptext37 326A                                      __ptext29 3216  
                                    __ptext62 329A                                      __ptext54 3296  
                                    __ptext46 3164                                      __ptext38 3142  
                                    __ptext63 327E                                      __ptext55 3278  
                                    __ptext47 2C1C                                      __ptext39 2A52  
                                    __ptext64 30FC                                      __ptext56 3090  
                                    __ptext48 3292                                      __ptext65 0000  
                                    __ptext57 30B4                                      __ptext49 3048  
                                    __ptext58 2F4C                                      __ptext59 30D8  
                      ?_ADCC_IsConversionDone 0001                __size_of_UART1_SetErrorHandler 000E  
               __end_of_UART1_SetErrorHandler 325C                              __size_of_sprintf 003E  
                       ??_UART2_RxDataHandler 0006                              __size_of_strncmp 00C6  
                               __size_of_main 010A      __end_of_UART2_DefaultFramingErrorHandler 3298  
   __size_of_UART2_DefaultFramingErrorHandler 0002            ??_UART2_DefaultFramingErrorHandler 0006  
           ?_UART2_DefaultFramingErrorHandler 0001              _UART2_DefaultFramingErrorHandler 3296  
                               __size_of_utoa 01AC          __end_of_TMR0_DefaultInterruptHandler 3294  
       __size_of_TMR0_DefaultInterruptHandler 0002                  _TMR0_DefaultInterruptHandler 3292  
                                 _IVTLOCKbits 003FD4                      __size_of_TMR5_WriteTimer 0024  
                   _UART1_OverrunErrorHandler 0063  UART1_SetOverrunErrorHandler@interruptHandler 0006  
UART2_SetOverrunErrorHandler@interruptHandler 0006            __size_of_UART1_DefaultErrorHandler 0006  
                __end_of_ADCC_StartConversion 31C2                    ?_UART1_DefaultErrorHandler 0001  
                  __end_of_UART2_Transmit_ISR 2F4C                                      _vfprintf 2DA8  
                           ??_TMR5_Initialize 0009                                 ??_Default_ISR 0001  
              ??_UART1_SetFramingErrorHandler 0009                   __end_of_UART1_RxDataHandler 3120  
                                 _uart1RxHead 0054                                   _uart1TxHead 0094  
                                 _uart2RxHead 0056                                   _uart1RxTail 0092  
                                 _uart2TxHead 0099                                   _uart2RxTail 0097  
                                 _uart1TxTail 0055                                   _uart2TxTail 0057  
                      ??_INTERRUPT_Initialize 0006          __end_of_UART2_SetOverrunErrorHandler 31FA  
       __size_of_UART2_SetOverrunErrorHandler 000E                  _UART2_SetOverrunErrorHandler 31EC  
                                    intlevel2 0000                                     sprintf@ap 00AB  
                     ?_PIN_MANAGER_Initialize 0001                __size_of_UART2_SetErrorHandler 000E  
               __end_of_UART2_SetErrorHandler 3216                                     strncmp@_l 0006  
                                   strncmp@_r 0007                           _uart1RxStatusBuffer 0100  
               ?_TMR0_DefaultInterruptHandler 0001  UART1_SetFramingErrorHandler@interruptHandler 0006  
UART2_SetFramingErrorHandler@interruptHandler 0006                      _ADCC_GetConversionResult 319E  
           __end_of_UART1_DefaultErrorHandler 3284                                   ??_vfpfcnvrt 0041  
                      _uart2TxBufferRemaining 0098                                      sprintf@f 00AC  
                                    sprintf@s 009A                               _TMR0_Initialize 2E76  
                                    strncmp@l 000B                                      strncmp@n 0008  
                                    strncmp@r 000C                     __size_of_UART1_Initialize 00B6  
                    _UART1_TxInterruptHandler 0078                           __end_of_Default_ISR 3292  
              __end_of_PIN_MANAGER_Initialize 2AF2                             ??_ADCC_Initialize 0006  
               ?_UART2_SetOverrunErrorHandler 0006                  ?_UART1_SetTxInterruptHandler 0006  
                ?_UART2_SetRxInterruptHandler 0006                     __size_of_UART2_Initialize 00AA  
